Certificate:
    Data:
        Version: 3 (0x2)
        Serial Number: 506 (0x1fa)
        Signature Algorithm: md5WithRSAEncryption
        Issuer: C=IT, ST=Fe, L=Ferrara, O=Azienda USL di Ferrara/emailAddress=postmaster@ausl.fe.it
        Validity
            Not Before: Nov 19 13:13:47 2012 GMT
            Not After : Dec 24 13:13:47 2013 GMT
        Subject: C=IT, ST=Fe, L=Ferrara, O=Azienda USL di Ferrara, OU=Office, CN=noemalife_04c/emailAddress=postmaster@ausl.fe.it
        Subject Public Key Info:
            Public Key Algorithm: rsaEncryption
                Public-Key: (2048 bit)
                Modulus:
                    00:dc:55:6a:c6:23:b0:f5:67:42:7e:0e:a3:28:2c:
                    b6:ae:c8:24:e2:2f:e0:70:e0:e8:d2:25:f0:00:cd:
                    9e:8a:ca:ae:7f:1c:31:b0:7d:94:3b:46:63:67:75:
                    f5:77:21:47:56:28:69:cc:df:50:22:c1:ab:bd:96:
                    e0:98:c1:38:53:5c:ae:bf:ae:b9:ca:c6:90:91:01:
                    99:29:e2:dc:39:5b:3c:d2:5f:0e:89:96:93:79:f9:
                    41:e4:5b:fd:a2:40:02:c1:49:7a:14:92:a1:f2:21:
                    be:da:88:73:98:16:82:84:cf:ff:99:ec:bd:03:c2:
                    bb:59:10:e6:c2:ea:0e:63:17:f9:f2:87:3d:87:0e:
                    31:fb:56:2c:06:f7:58:e2:98:0f:e8:49:5a:31:00:
                    7e:bb:2d:f0:b5:49:b1:76:ec:c5:c7:94:b7:57:0f:
                    4f:7b:1f:db:26:f8:89:f1:e8:e8:80:ff:c8:de:ae:
                    c9:a4:2c:b9:8d:ff:33:6e:35:83:76:70:73:03:f7:
                    a8:9e:53:9d:a1:c2:39:1c:c6:b3:da:a5:67:b7:23:
                    84:67:a9:b2:31:b5:f6:6d:1a:fe:93:78:70:2d:8f:
                    b2:4e:3e:97:27:bd:66:14:40:49:a3:15:fb:8b:0e:
                    7d:9e:f1:25:4f:3d:8f:7e:41:65:0e:35:c2:7b:ce:
                    7c:39
                Exponent: 65537 (0x10001)
        X509v3 extensions:
            X509v3 Basic Constraints: 
                CA:FALSE
            Netscape Comment: 
                OpenSSL Generated Certificate
            X509v3 Subject Key Identifier: 
                0B:38:9C:6C:07:29:50:06:F5:91:9A:1B:61:2B:AF:98:D0:5D:DD:5E
            X509v3 Authority Key Identifier: 
                keyid:BA:FB:C6:D6:2A:9F:33:51:41:32:4B:E0:40:DA:FD:76:99:67:40:3F
                DirName:/C=IT/ST=Fe/L=Ferrara/O=Azienda USL di Ferrara/emailAddress=postmaster@ausl.fe.it
                serial:89:39:CD:2D:45:C8:AC:C4

    Signature Algorithm: md5WithRSAEncryption
        63:61:32:f3:74:09:5a:22:06:1d:ec:fc:d6:a3:54:67:1b:e2:
        2f:54:1a:7a:5a:56:a5:4e:d9:b5:d3:4b:c6:c6:c2:aa:d4:c2:
        24:bf:76:03:01:85:29:48:6b:c6:c1:e4:ac:c5:1a:cd:71:e2:
        63:b8:b1:2c:ed:88:c1:a6:a6:0c:fd:ec:39:39:29:a2:5a:48:
        bf:90:69:6e:7a:ab:c5:fe:aa:41:04:bc:75:b3:82:98:74:70:
        af:d1:b8:68:29:5a:e1:c9:89:5b:0e:0e:6c:b7:e6:61:2f:b9:
        c5:2b:54:12:5f:62:34:09:4e:ab:2c:db:a3:ba:c8:eb:11:97:
        92:88:08:5b:c0:a6:d6:d6:26:02:74:ba:29:75:88:93:76:8f:
        64:52:c3:3a:d4:9d:05:8c:fd:06:09:5c:d5:6b:3d:64:15:42:
        6b:9f:f7:df:6c:f9:31:ee:7b:07:38:db:ad:a2:a6:09:88:34:
        6e:70:e7:82:40:74:01:26:c3:fa:8f:63:ec:04:3f:80:88:b8:
        f0:95:25:8a:4b:b8:7f:92:ac:03:f9:db:59:c9:c5:dd:70:82:
        71:bc:f2:73:9a:3f:c0:a5:69:75:4e:7d:86:08:21:ef:98:e0:
        97:11:4a:47:80:97:e6:61:06:40:07:16:9a:32:d3:32:81:5a:
        c1:85:3f:1f
-----BEGIN CERTIFICATE-----
MIIEkjCCA3qgAwIBAgICAfowDQYJKoZIhvcNAQEEBQAwczELMAkGA1UEBhMCSVQx
CzAJBgNVBAgTAkZlMRAwDgYDVQQHEwdGZXJyYXJhMR8wHQYDVQQKExZBemllbmRh
IFVTTCBkaSBGZXJyYXJhMSQwIgYJKoZIhvcNAQkBFhVwb3N0bWFzdGVyQGF1c2wu
ZmUuaXQwHhcNMTIxMTE5MTMxMzQ3WhcNMTMxMjI0MTMxMzQ3WjCBnDELMAkGA1UE
BhMCSVQxCzAJBgNVBAgTAkZlMRAwDgYDVQQHEwdGZXJyYXJhMR8wHQYDVQQKExZB
emllbmRhIFVTTCBkaSBGZXJyYXJhMQ8wDQYDVQQLEwZPZmZpY2UxFjAUBgNVBAMU
DW5vZW1hbGlmZV8wNGMxJDAiBgkqhkiG9w0BCQEWFXBvc3RtYXN0ZXJAYXVzbC5m
ZS5pdDCCASIwDQYJKoZIhvcNAQEBBQADggEPADCCAQoCggEBANxVasYjsPVnQn4O
oygstq7IJOIv4HDg6NIl8ADNnorKrn8cMbB9lDtGY2d19XchR1YoaczfUCLBq72W
4JjBOFNcrr+uucrGkJEBmSni3DlbPNJfDomWk3n5QeRb/aJAAsFJehSSofIhvtqI
c5gWgoTP/5nsvQPCu1kQ5sLqDmMX+fKHPYcOMftWLAb3WOKYD+hJWjEAfrst8LVJ
sXbsxceUt1cPT3sf2yb4ifHo6ID/yN6uyaQsuY3/M241g3ZwcwP3qJ5TnaHCORzG
s9qlZ7cjhGepsjG19m0a/pN4cC2Psk4+lye9ZhRASaMV+4sOfZ7xJU89j35BZQ41
wnvOfDkCAwEAAaOCAQQwggEAMAkGA1UdEwQCMAAwLAYJYIZIAYb4QgENBB8WHU9w
ZW5TU0wgR2VuZXJhdGVkIENlcnRpZmljYXRlMB0GA1UdDgQWBBQLOJxsBylQBvWR
mhthK6+Y0F3dXjCBpQYDVR0jBIGdMIGagBS6+8bWKp8zUUEyS+BA2v12mWdAP6F3
pHUwczELMAkGA1UEBhMCSVQxCzAJBgNVBAgTAkZlMRAwDgYDVQQHEwdGZXJyYXJh
MR8wHQYDVQQKExZBemllbmRhIFVTTCBkaSBGZXJyYXJhMSQwIgYJKoZIhvcNAQkB
FhVwb3N0bWFzdGVyQGF1c2wuZmUuaXSCCQCJOc0tRcisxDANBgkqhkiG9w0BAQQF
AAOCAQEAY2Ey83QJWiIGHez81qNUZxviL1QaelpWpU7ZtdNLxsbCqtTCJL92AwGF
KUhrxsHkrMUazXHiY7ixLO2IwaamDP3sOTkpolpIv5Bpbnqrxf6qQQS8dbOCmHRw
r9G4aCla4cmJWw4ObLfmYS+5xStUEl9iNAlOqyzbo7rI6xGXkogIW8Cm1tYmAnS6
KXWIk3aPZFLDOtSdBYz9Bglc1Ws9ZBVCa5/332z5Me57BzjbraKmCYg0bnDngkB0
ASbD+o9j7AQ/gIi48JUliku4f5KsA/nbWcnF3XCCcbzyc5o/wKVpdU59hggh75jg
lxFKR4CX5mEGQAcWmjLTMoFawYU/Hw==
-----END CERTIFICATE-----
