Certificate:
    Data:
        Version: 3 (0x2)
        Serial Number: 701 (0x2bd)
        Signature Algorithm: md5WithRSAEncryption
        Issuer: C=IT, ST=PR, L=Parma, O=Ausl Parma/emailAddress=tecnico@studiostorti.com
        Validity
            Not Before: Apr 19 10:08:47 2012 GMT
            Not After : Apr 29 10:08:47 2013 GMT
        Subject: C=IT, ST=PR, L=Parma, O=Ausl Parma, OU=Serv RIT, CN=noem1_bbaraldi_7_b/emailAddress=bbaraldi@noemalife.com
        Subject Public Key Info:
            Public Key Algorithm: rsaEncryption
            RSA Public Key: (2048 bit)
                Modulus (2048 bit):
                    00:bc:a1:64:20:35:52:94:b8:4f:08:24:97:22:37:
                    4a:3f:00:69:97:3c:c0:3c:c6:c8:5c:b2:8e:25:3e:
                    bc:53:ce:28:3f:34:14:47:49:3b:f8:f6:30:e3:f5:
                    9b:c6:4e:6f:af:5b:76:ab:e5:7c:26:b8:cd:ee:33:
                    0e:82:f2:c9:86:01:4e:63:49:fe:f6:ec:f6:c5:cb:
                    49:e9:ca:01:ae:f9:96:2b:d7:ee:54:f1:b3:8e:fa:
                    87:d7:f8:2c:58:69:0e:ea:7f:f7:73:c7:22:ff:93:
                    d6:9d:23:b5:b3:64:dd:84:52:66:86:a5:fe:0d:f5:
                    e9:48:a0:36:3a:20:ed:bf:4a:68:3e:23:ab:92:c8:
                    9d:2d:07:a9:95:5d:14:d9:e2:79:8e:25:fc:db:ef:
                    c9:12:f7:cf:ac:1e:d4:6c:9b:a3:58:da:e6:22:c4:
                    c9:5f:06:12:2f:b7:90:17:cc:11:04:37:2a:0d:9f:
                    b6:e6:0f:6e:9e:01:fd:4d:52:be:db:79:6e:e5:f8:
                    6f:0f:79:f9:a9:64:31:55:30:ab:93:53:70:3c:bd:
                    e7:1e:57:d1:77:fb:bd:a3:1a:78:27:22:39:a7:6a:
                    72:27:60:b2:02:6c:fa:ce:cd:4f:78:15:8b:a9:96:
                    d3:ec:e8:91:cb:38:af:d2:69:c6:72:02:79:68:8b:
                    56:0b
                Exponent: 65537 (0x10001)
        X509v3 extensions:
            X509v3 Basic Constraints: 
                CA:FALSE
            Netscape Comment: 
                OpenSSL Generated Certificate
            X509v3 Subject Key Identifier: 
                75:75:9F:E6:A2:00:04:08:EE:1E:7D:85:B8:DA:31:5E:90:A6:EB:88
            X509v3 Authority Key Identifier: 
                keyid:A0:A3:30:83:8D:44:08:3B:30:98:59:19:A1:14:84:5C:7C:F3:6D:52
                DirName:/C=IT/ST=PR/L=Parma/O=Ausl Parma/emailAddress=tecnico@studiostorti.com
                serial:EF:B7:19:D2:1E:07:10:68

    Signature Algorithm: md5WithRSAEncryption
        09:56:f0:69:bd:ad:2b:01:af:cd:47:23:1d:ff:ae:7b:0c:b3:
        c4:59:ff:f2:59:26:b5:f2:98:40:c2:7d:b1:33:d3:84:7d:f5:
        bf:35:a6:f5:bf:a9:e2:92:b1:95:52:27:a7:da:81:7e:32:81:
        fc:d7:aa:58:1c:9a:77:53:93:ac:83:ed:50:2f:3a:7a:28:c8:
        6c:f8:38:b3:05:14:39:e7:7c:a9:32:7c:99:ca:4e:f3:78:18:
        52:b7:9e:21:8f:29:61:ae:b7:39:54:a2:fc:4c:c5:30:2a:74:
        5e:81:36:d9:cb:08:19:fb:5f:dd:6a:04:32:f7:1c:cb:c7:65:
        2a:ab:98:59:4b:55:dd:e7:27:ea:bb:c7:b8:04:73:08:fd:07:
        d1:ce:15:5d:ed:bf:96:3c:d4:59:82:61:6a:51:6d:46:f4:d8:
        1c:44:00:75:47:57:b2:27:5f:0a:88:e6:9a:41:52:4b:90:dc:
        d2:00:3d:16:44:52:f3:f4:d8:73:5f:98:4a:8b:54:92:d6:34:
        5c:44:a0:91:0f:3f:e4:78:0f:a4:12:10:d3:1a:71:60:d9:3d:
        d1:1a:be:9e:cc:00:aa:db:ed:96:c4:3c:08:ce:ab:b6:39:63:
        d4:79:94:57:ad:b7:79:db:b1:4c:74:67:c1:4a:80:f3:20:3c:
        54:55:91:0b
-----BEGIN CERTIFICATE-----
MIIEdDCCA1ygAwIBAgICAr0wDQYJKoZIhvcNAQEEBQAwaDELMAkGA1UEBhMCSVQx
CzAJBgNVBAgTAlBSMQ4wDAYDVQQHEwVQYXJtYTETMBEGA1UEChMKQXVzbCBQYXJt
YTEnMCUGCSqGSIb3DQEJARYYdGVjbmljb0BzdHVkaW9zdG9ydGkuY29tMB4XDTEy
MDQxOTEwMDg0N1oXDTEzMDQyOTEwMDg0N1owgZYxCzAJBgNVBAYTAklUMQswCQYD
VQQIEwJQUjEOMAwGA1UEBxMFUGFybWExEzARBgNVBAoTCkF1c2wgUGFybWExETAP
BgNVBAsTCFNlcnYgUklUMRswGQYDVQQDFBJub2VtMV9iYmFyYWxkaV83X2IxJTAj
BgkqhkiG9w0BCQEWFmJiYXJhbGRpQG5vZW1hbGlmZS5jb20wggEiMA0GCSqGSIb3
DQEBAQUAA4IBDwAwggEKAoIBAQC8oWQgNVKUuE8IJJciN0o/AGmXPMA8xshcso4l
PrxTzig/NBRHSTv49jDj9ZvGTm+vW3ar5XwmuM3uMw6C8smGAU5jSf727PbFy0np
ygGu+ZYr1+5U8bOO+ofX+CxYaQ7qf/dzxyL/k9adI7WzZN2EUmaGpf4N9elIoDY6
IO2/Smg+I6uSyJ0tB6mVXRTZ4nmOJfzb78kS98+sHtRsm6NY2uYixMlfBhIvt5AX
zBEENyoNn7bmD26eAf1NUr7beW7l+G8PefmpZDFVMKuTU3A8veceV9F3+72jGngn
IjmnanInYLICbPrOzU94FYupltPs6JHLOK/SacZyAnloi1YLAgMBAAGjgfgwgfUw
CQYDVR0TBAIwADAsBglghkgBhvhCAQ0EHxYdT3BlblNTTCBHZW5lcmF0ZWQgQ2Vy
dGlmaWNhdGUwHQYDVR0OBBYEFHV1n+aiAAQI7h59hbjaMV6QpuuIMIGaBgNVHSME
gZIwgY+AFKCjMIONRAg7MJhZGaEUhFx8821SoWykajBoMQswCQYDVQQGEwJJVDEL
MAkGA1UECBMCUFIxDjAMBgNVBAcTBVBhcm1hMRMwEQYDVQQKEwpBdXNsIFBhcm1h
MScwJQYJKoZIhvcNAQkBFhh0ZWNuaWNvQHN0dWRpb3N0b3J0aS5jb22CCQDvtxnS
HgcQaDANBgkqhkiG9w0BAQQFAAOCAQEACVbwab2tKwGvzUcjHf+uewyzxFn/8lkm
tfKYQMJ9sTPThH31vzWm9b+p4pKxlVInp9qBfjKB/NeqWByad1OTrIPtUC86eijI
bPg4swUUOed8qTJ8mcpO83gYUreeIY8pYa63OVSi/EzFMCp0XoE22csIGftf3WoE
Mvccy8dlKquYWUtV3ecn6rvHuARzCP0H0c4VXe2/ljzUWYJhalFtRvTYHEQAdUdX
sidfCojmmkFSS5Dc0gA9FkRS8/TYc1+YSotUktY0XESgkQ8/5HgPpBIQ0xpxYNk9
0Rq+nswAqtvtlsQ8CM6rtjlj1HmUV623eduxTHRnwUqA8yA8VFWRCw==
-----END CERTIFICATE-----
