Certificate:
    Data:
        Version: 3 (0x2)
        Serial Number: 178 (0xb2)
        Signature Algorithm: md5WithRSAEncryption
        Issuer: C=IT, ST=TO, L=TORINO, O=ASL4, OU=CED, CN=CED-ASL4/emailAddress=Michele.fasciana@asl4.to.it
        Validity
            Not Before: Dec  4 14:21:10 2009 GMT
            Not After : Dec  2 14:21:10 2019 GMT
        Subject: C=IT, ST=TO, L=TORINO, O=CED-ASL4, CN=dianoema8p/emailAddress=ced@asl4.to.it
        Subject Public Key Info:
            Public Key Algorithm: rsaEncryption
            RSA Public Key: (1024 bit)
                Modulus (1024 bit):
                    00:a6:b6:e7:34:4a:28:97:e0:b9:1a:4c:38:49:6f:
                    4b:66:95:ba:b9:99:9e:0a:aa:b3:f0:9b:d6:ed:a8:
                    97:c6:fe:0d:4a:79:e1:4c:98:9c:95:7f:3d:1d:94:
                    aa:1f:ff:52:92:c8:2d:20:8d:7d:44:15:ea:51:39:
                    f5:a4:30:d0:a8:f3:e7:4f:85:87:b0:43:c6:a3:2d:
                    61:ee:c0:a7:9b:a5:fc:ef:8f:5c:ff:2e:24:3e:cf:
                    f6:ba:80:a6:4a:50:b3:8d:80:34:18:41:e9:c1:2b:
                    2f:6f:5f:e7:84:94:76:b9:2d:37:71:ab:80:07:43:
                    43:19:71:94:6d:9b:6f:d9:29
                Exponent: 65537 (0x10001)
        X509v3 extensions:
            X509v3 Basic Constraints: 
                CA:FALSE
            Netscape Comment: 
                OpenSSL Generated Certificate
            X509v3 Subject Key Identifier: 
                79:82:18:44:95:63:4F:F3:80:D6:52:11:DA:A9:32:45:57:D1:80:2C
            X509v3 Authority Key Identifier: 
                keyid:91:8E:A4:3A:68:A4:1C:55:92:E4:11:2E:91:FD:AC:06:1A:88:B0:31
                DirName:/C=IT/ST=TO/L=TORINO/O=ASL4/OU=CED/CN=CED-ASL4/emailAddress=Michele.fasciana@asl4.to.it
                serial:00

    Signature Algorithm: md5WithRSAEncryption
        3b:0c:d1:d5:5f:fc:4c:c2:f6:6c:5b:89:e8:1a:19:c7:75:b2:
        0b:6b:79:99:b4:a2:4b:4a:41:03:63:59:c4:50:ef:ec:df:84:
        8a:47:e9:11:c6:cc:b7:f9:be:4a:78:9e:fd:42:74:4b:ac:3f:
        72:c2:c6:08:91:9c:a5:db:fa:5a:d2:f9:12:56:db:77:6c:4f:
        00:a6:f4:61:c4:bc:26:f8:db:d3:d5:5d:ac:20:41:33:e7:59:
        6e:46:37:10:07:2d:51:95:c9:d8:51:9d:99:78:4d:c7:60:ce:
        51:43:fd:54:be:2a:52:88:0c:bc:10:cc:a5:95:9b:bc:52:ec:
        93:39
-----BEGIN CERTIFICATE-----
MIIDhjCCAu+gAwIBAgICALIwDQYJKoZIhvcNAQEEBQAwgYcxCzAJBgNVBAYTAklU
MQswCQYDVQQIEwJUTzEPMA0GA1UEBxMGVE9SSU5PMQ0wCwYDVQQKEwRBU0w0MQww
CgYDVQQLEwNDRUQxETAPBgNVBAMTCENFRC1BU0w0MSowKAYJKoZIhvcNAQkBFhtN
aWNoZWxlLmZhc2NpYW5hQGFzbDQudG8uaXQwHhcNMDkxMjA0MTQyMTEwWhcNMTkx
MjAyMTQyMTEwWjByMQswCQYDVQQGEwJJVDELMAkGA1UECBMCVE8xDzANBgNVBAcT
BlRPUklOTzERMA8GA1UEChMIQ0VELUFTTDQxEzARBgNVBAMTCmRpYW5vZW1hOHAx
HTAbBgkqhkiG9w0BCQEWDmNlZEBhc2w0LnRvLml0MIGfMA0GCSqGSIb3DQEBAQUA
A4GNADCBiQKBgQCmtuc0SiiX4LkaTDhJb0tmlbq5mZ4KqrPwm9btqJfG/g1KeeFM
mJyVfz0dlKof/1KSyC0gjX1EFepROfWkMNCo8+dPhYewQ8ajLWHuwKebpfzvj1z/
LiQ+z/a6gKZKULONgDQYQenBKy9vX+eElHa5LTdxq4AHQ0MZcZRtm2/ZKQIDAQAB
o4IBEzCCAQ8wCQYDVR0TBAIwADAsBglghkgBhvhCAQ0EHxYdT3BlblNTTCBHZW5l
cmF0ZWQgQ2VydGlmaWNhdGUwHQYDVR0OBBYEFHmCGESVY0/zgNZSEdqpMkVX0YAs
MIG0BgNVHSMEgawwgamAFJGOpDpopBxVkuQRLpH9rAYaiLAxoYGNpIGKMIGHMQsw
CQYDVQQGEwJJVDELMAkGA1UECBMCVE8xDzANBgNVBAcTBlRPUklOTzENMAsGA1UE
ChMEQVNMNDEMMAoGA1UECxMDQ0VEMREwDwYDVQQDEwhDRUQtQVNMNDEqMCgGCSqG
SIb3DQEJARYbTWljaGVsZS5mYXNjaWFuYUBhc2w0LnRvLml0ggEAMA0GCSqGSIb3
DQEBBAUAA4GBADsM0dVf/EzC9mxbiegaGcd1sgtreZm0oktKQQNjWcRQ7+zfhIpH
6RHGzLf5vkp4nv1CdEusP3LCxgiRnKXb+lrS+RJW23dsTwCm9GHEvCb429PVXawg
QTPnWW5GNxAHLVGVydhRnZl4TcdgzlFD/VS+KlKIDLwQzKWVm7xS7JM5
-----END CERTIFICATE-----
