Certificate:
    Data:
        Version: 3 (0x2)
        Serial Number: 505 (0x1f9)
        Signature Algorithm: md5WithRSAEncryption
        Issuer: C=IT, ST=Fe, L=Ferrara, O=Azienda USL di Ferrara/emailAddress=postmaster@ausl.fe.it
        Validity
            Not Before: Nov 19 13:13:21 2012 GMT
            Not After : Dec 24 13:13:21 2013 GMT
        Subject: C=IT, ST=Fe, L=Ferrara, O=Azienda USL di Ferrara, OU=Office, CN=noemalife_03c/emailAddress=postmaster@ausl.fe.it
        Subject Public Key Info:
            Public Key Algorithm: rsaEncryption
                Public-Key: (2048 bit)
                Modulus:
                    00:f8:f9:4b:77:5e:c8:12:47:3c:b2:4f:5e:7f:94:
                    ba:30:2d:d0:20:e2:6c:ba:10:ce:55:ed:c0:01:a7:
                    15:22:d0:e3:27:09:ef:c2:dd:81:62:fc:69:eb:6b:
                    8a:37:92:e7:35:d6:a2:af:ba:0d:59:86:e7:41:98:
                    c9:8d:ff:25:93:ec:91:a3:82:82:ce:5a:ed:d3:20:
                    b1:d9:d4:c8:d2:c5:55:7a:88:99:08:05:7d:4a:d3:
                    72:59:3d:9f:3e:fc:89:03:d5:f1:9c:aa:e7:95:97:
                    f9:52:42:cc:c2:7f:0d:75:ef:72:c9:4f:48:f6:6c:
                    f5:5d:fc:7b:ef:f8:86:4d:3d:ae:63:bc:4e:92:af:
                    a1:7b:eb:a6:65:66:cd:dc:12:70:ae:f1:c1:b4:7e:
                    73:53:96:63:5b:11:aa:d9:5d:37:c2:77:00:26:52:
                    c2:f6:08:49:bc:41:b5:fd:35:84:0f:48:19:f1:4a:
                    28:40:ce:41:88:ab:64:be:7c:f4:f9:2d:a8:ab:be:
                    72:70:64:06:e9:42:43:6b:41:5a:fc:cc:bd:57:ef:
                    8a:f2:36:91:5e:4d:36:c9:e6:2a:ed:0f:0c:9c:1f:
                    79:a9:8f:34:1e:52:86:14:ab:e2:f2:9e:2e:86:cf:
                    ff:a0:ac:9f:05:94:d4:de:c9:66:83:34:ae:a9:fd:
                    c8:43
                Exponent: 65537 (0x10001)
        X509v3 extensions:
            X509v3 Basic Constraints: 
                CA:FALSE
            Netscape Comment: 
                OpenSSL Generated Certificate
            X509v3 Subject Key Identifier: 
                8F:7B:9E:DA:B7:E3:B6:CB:D0:AA:41:D0:42:94:1F:D1:36:EC:99:5D
            X509v3 Authority Key Identifier: 
                keyid:BA:FB:C6:D6:2A:9F:33:51:41:32:4B:E0:40:DA:FD:76:99:67:40:3F
                DirName:/C=IT/ST=Fe/L=Ferrara/O=Azienda USL di Ferrara/emailAddress=postmaster@ausl.fe.it
                serial:89:39:CD:2D:45:C8:AC:C4

    Signature Algorithm: md5WithRSAEncryption
        87:f9:75:26:41:fe:a6:ba:61:b0:0d:1b:83:4f:9e:be:29:cb:
        c4:fa:be:f8:0e:33:3d:a2:ff:c7:83:b1:bb:ea:a6:43:ce:45:
        de:b2:07:cc:e3:46:ce:48:4f:cc:70:18:46:7a:fe:2b:90:56:
        1e:b6:32:60:c7:fe:c0:4b:5a:ec:45:77:8d:60:63:7d:78:88:
        11:77:cc:e6:fb:56:25:0f:9d:25:fc:08:89:ef:5d:87:c6:bf:
        8e:52:df:69:66:a1:93:b9:38:23:22:0d:91:9c:2e:e3:bf:16:
        22:a6:02:f4:71:58:a2:1b:fd:c4:b4:71:d3:89:7d:ac:5c:c3:
        0e:b2:d6:82:3a:04:18:1b:3a:72:23:b9:c9:8a:01:4e:bb:9d:
        72:25:ba:89:74:85:64:11:59:79:f1:bd:42:34:94:5c:11:21:
        6d:7a:a7:a4:49:dd:3a:b5:a8:a7:00:45:0a:05:2e:da:72:8b:
        70:a5:f9:a7:7e:f0:a9:f1:1a:56:fa:93:4c:c2:3c:40:71:05:
        3a:14:cb:f3:f0:93:32:4d:72:df:47:57:9a:f3:3b:2e:5f:47:
        95:12:0d:4a:35:50:cf:24:a9:d4:97:e5:06:f3:60:41:d7:af:
        f7:3a:5c:64:a8:93:9e:4f:33:cf:e2:43:6d:e1:2f:28:d8:b4:
        04:94:eb:ea
-----BEGIN CERTIFICATE-----
MIIEkjCCA3qgAwIBAgICAfkwDQYJKoZIhvcNAQEEBQAwczELMAkGA1UEBhMCSVQx
CzAJBgNVBAgTAkZlMRAwDgYDVQQHEwdGZXJyYXJhMR8wHQYDVQQKExZBemllbmRh
IFVTTCBkaSBGZXJyYXJhMSQwIgYJKoZIhvcNAQkBFhVwb3N0bWFzdGVyQGF1c2wu
ZmUuaXQwHhcNMTIxMTE5MTMxMzIxWhcNMTMxMjI0MTMxMzIxWjCBnDELMAkGA1UE
BhMCSVQxCzAJBgNVBAgTAkZlMRAwDgYDVQQHEwdGZXJyYXJhMR8wHQYDVQQKExZB
emllbmRhIFVTTCBkaSBGZXJyYXJhMQ8wDQYDVQQLEwZPZmZpY2UxFjAUBgNVBAMU
DW5vZW1hbGlmZV8wM2MxJDAiBgkqhkiG9w0BCQEWFXBvc3RtYXN0ZXJAYXVzbC5m
ZS5pdDCCASIwDQYJKoZIhvcNAQEBBQADggEPADCCAQoCggEBAPj5S3deyBJHPLJP
Xn+UujAt0CDibLoQzlXtwAGnFSLQ4ycJ78LdgWL8aetrijeS5zXWoq+6DVmG50GY
yY3/JZPskaOCgs5a7dMgsdnUyNLFVXqImQgFfUrTclk9nz78iQPV8Zyq55WX+VJC
zMJ/DXXvcslPSPZs9V38e+/4hk09rmO8TpKvoXvrpmVmzdwScK7xwbR+c1OWY1sR
qtldN8J3ACZSwvYISbxBtf01hA9IGfFKKEDOQYirZL589PktqKu+cnBkBulCQ2tB
WvzMvVfvivI2kV5NNsnmKu0PDJwfeamPNB5ShhSr4vKeLobP/6CsnwWU1N7JZoM0
rqn9yEMCAwEAAaOCAQQwggEAMAkGA1UdEwQCMAAwLAYJYIZIAYb4QgENBB8WHU9w
ZW5TU0wgR2VuZXJhdGVkIENlcnRpZmljYXRlMB0GA1UdDgQWBBSPe57at+O2y9Cq
QdBClB/RNuyZXTCBpQYDVR0jBIGdMIGagBS6+8bWKp8zUUEyS+BA2v12mWdAP6F3
pHUwczELMAkGA1UEBhMCSVQxCzAJBgNVBAgTAkZlMRAwDgYDVQQHEwdGZXJyYXJh
MR8wHQYDVQQKExZBemllbmRhIFVTTCBkaSBGZXJyYXJhMSQwIgYJKoZIhvcNAQkB
FhVwb3N0bWFzdGVyQGF1c2wuZmUuaXSCCQCJOc0tRcisxDANBgkqhkiG9w0BAQQF
AAOCAQEAh/l1JkH+prphsA0bg0+evinLxPq++A4zPaL/x4Oxu+qmQ85F3rIHzONG
zkhPzHAYRnr+K5BWHrYyYMf+wEta7EV3jWBjfXiIEXfM5vtWJQ+dJfwIie9dh8a/
jlLfaWahk7k4IyINkZwu478WIqYC9HFYohv9xLRx04l9rFzDDrLWgjoEGBs6ciO5
yYoBTrudciW6iXSFZBFZefG9QjSUXBEhbXqnpEndOrWopwBFCgUu2nKLcKX5p37w
qfEaVvqTTMI8QHEFOhTL8/CTMk1y30dXmvM7Ll9HlRINSjVQzySp1JflBvNgQdev
9zpcZKiTnk8zz+JDbeEvKNi0BJTr6g==
-----END CERTIFICATE-----
