Certificate:
    Data:
        Version: 3 (0x2)
        Serial Number: 105 (0x69)
        Signature Algorithm: md5WithRSAEncryption
        Issuer: C=IT, ST=TO, L=BANCHETTE, O=CIC, OU=sys, CN=wallofswords/emailAddress=tecnologie@cic.ivrea.it
        Validity
            Not Before: Nov 13 10:30:29 2008 GMT
            Not After : Nov 11 10:30:29 2018 GMT
        Subject: C=IT, ST=TO, O=CIC, CN=dianoema2/emailAddress=dangeletti@noemalife.com
        Subject Public Key Info:
            Public Key Algorithm: rsaEncryption
            RSA Public Key: (1024 bit)
                Modulus (1024 bit):
                    00:b8:97:ac:38:cc:99:48:0d:94:95:17:52:ed:47:
                    05:7d:d9:95:8a:f9:be:f6:52:44:4c:f6:bc:73:f9:
                    be:46:e4:a7:99:b5:e0:03:e0:2d:b5:59:e5:97:77:
                    44:7a:37:41:d9:86:b3:9f:43:3f:32:cd:b7:b5:b1:
                    bf:ee:d0:ce:5d:86:b4:2c:53:c9:3f:80:86:a2:fb:
                    f2:fa:6f:80:29:ac:c7:1a:78:a5:1c:3b:bd:73:cd:
                    cf:71:51:44:aa:ba:4e:c8:2e:e0:33:70:1a:dd:85:
                    47:30:27:58:6a:aa:3e:8a:9f:99:d7:59:d2:fc:9f:
                    a8:07:1d:76:32:60:a2:0c:11
                Exponent: 65537 (0x10001)
        X509v3 extensions:
            X509v3 Basic Constraints: 
                CA:FALSE
            Netscape Comment: 
                OpenSSL Generated Certificate
            X509v3 Subject Key Identifier: 
                2E:42:3B:EF:E9:47:E1:C1:89:14:A1:1A:12:DA:7B:08:43:2C:30:FF
            X509v3 Authority Key Identifier: 
                keyid:8D:1D:6D:E0:8F:AC:34:1A:7C:9F:DF:E0:1D:DB:CF:E9:42:AA:00:7E
                DirName:/C=IT/ST=TO/L=BANCHETTE/O=CIC/OU=sys/CN=wallofswords/emailAddress=tecnologie@cic.ivrea.it
                serial:00

    Signature Algorithm: md5WithRSAEncryption
        31:02:b4:77:f5:c0:9e:4f:88:01:84:16:ff:65:94:06:0e:68:
        26:6b:99:4e:1f:d7:08:a4:ad:6a:67:02:e1:61:1f:9b:53:63:
        0b:84:ca:2f:1d:66:3d:56:c5:d2:e2:97:41:2a:f7:a1:76:61:
        0d:ef:60:c7:5a:a8:0e:92:b5:c5:57:9d:39:93:86:01:2a:27:
        2f:72:f6:c7:30:95:66:8f:65:64:9c:34:55:ba:4f:25:c3:37:
        8e:52:35:80:27:34:d7:18:7a:6d:ab:3f:03:c8:7d:c6:bd:2b:
        bb:90:e8:6b:0d:8c:e0:0b:b2:ee:ab:61:6c:f2:db:b4:ee:e1:
        a8:83
-----BEGIN CERTIFICATE-----
MIIDfDCCAuWgAwIBAgIBaTANBgkqhkiG9w0BAQQFADCBiTELMAkGA1UEBhMCSVQx
CzAJBgNVBAgTAlRPMRIwEAYDVQQHEwlCQU5DSEVUVEUxDDAKBgNVBAoTA0NJQzEM
MAoGA1UECxMDc3lzMRUwEwYDVQQDEwx3YWxsb2Zzd29yZHMxJjAkBgkqhkiG9w0B
CQEWF3RlY25vbG9naWVAY2ljLml2cmVhLml0MB4XDTA4MTExMzEwMzAyOVoXDTE4
MTExMTEwMzAyOVowZTELMAkGA1UEBhMCSVQxCzAJBgNVBAgTAlRPMQwwCgYDVQQK
EwNDSUMxEjAQBgNVBAMTCWRpYW5vZW1hMjEnMCUGCSqGSIb3DQEJARYYZGFuZ2Vs
ZXR0aUBub2VtYWxpZmUuY29tMIGfMA0GCSqGSIb3DQEBAQUAA4GNADCBiQKBgQC4
l6w4zJlIDZSVF1LtRwV92ZWK+b72UkRM9rxz+b5G5KeZteAD4C21WeWXd0R6N0HZ
hrOfQz8yzbe1sb/u0M5dhrQsU8k/gIai+/L6b4AprMcaeKUcO71zzc9xUUSquk7I
LuAzcBrdhUcwJ1hqqj6Kn5nXWdL8n6gHHXYyYKIMEQIDAQABo4IBFTCCAREwCQYD
VR0TBAIwADAsBglghkgBhvhCAQ0EHxYdT3BlblNTTCBHZW5lcmF0ZWQgQ2VydGlm
aWNhdGUwHQYDVR0OBBYEFC5CO+/pR+HBiRShGhLaewhDLDD/MIG2BgNVHSMEga4w
gauAFI0dbeCPrDQafJ/f4B3bz+lCqgB+oYGPpIGMMIGJMQswCQYDVQQGEwJJVDEL
MAkGA1UECBMCVE8xEjAQBgNVBAcTCUJBTkNIRVRURTEMMAoGA1UEChMDQ0lDMQww
CgYDVQQLEwNzeXMxFTATBgNVBAMTDHdhbGxvZnN3b3JkczEmMCQGCSqGSIb3DQEJ
ARYXdGVjbm9sb2dpZUBjaWMuaXZyZWEuaXSCAQAwDQYJKoZIhvcNAQEEBQADgYEA
MQK0d/XAnk+IAYQW/2WUBg5oJmuZTh/XCKStamcC4WEfm1NjC4TKLx1mPVbF0uKX
QSr3oXZhDe9gx1qoDpK1xVedOZOGASonL3L2xzCVZo9lZJw0VbpPJcM3jlI1gCc0
1xh6bas/A8h9xr0ru5Doaw2M4Auy7qthbPLbtO7hqIM=
-----END CERTIFICATE-----
