Certificate:
    Data:
        Version: 3 (0x2)
        Serial Number: 152 (0x98)
        Signature Algorithm: md5WithRSAEncryption
        Issuer: C=IT, ST=TO, L=TORINO, O=ASL4, OU=CED, CN=CED-ASL4/emailAddress=Michele.fasciana@asl4.to.it
        Validity
            Not Before: Apr  9 10:12:44 2009 GMT
            Not After : Apr  7 10:12:44 2019 GMT
        Subject: C=IT, ST=TO, L=TORINO, O=CED-ASL4, CN=dianoema_gboscop/emailAddress=ced@asl4.to.it
        Subject Public Key Info:
            Public Key Algorithm: rsaEncryption
            RSA Public Key: (1024 bit)
                Modulus (1024 bit):
                    00:c9:c4:48:e7:9d:4c:8a:0d:fe:20:4f:0f:7a:76:
                    80:6a:79:8f:99:69:b6:59:79:ed:bc:2c:64:ed:0b:
                    5b:c9:21:a1:06:59:46:99:9e:53:5f:73:08:81:94:
                    33:97:34:ee:ba:37:cd:08:67:31:e8:fe:78:b1:ad:
                    51:5c:33:5c:c4:25:5b:a2:16:3d:23:96:3a:1e:f7:
                    32:31:0b:40:27:71:a5:b6:0d:ff:78:91:d4:53:2e:
                    f2:90:45:22:73:21:a5:eb:30:6d:17:45:98:d5:99:
                    ee:8c:61:ea:b3:28:eb:61:00:ef:2f:64:e4:40:e1:
                    69:9b:6e:cd:8b:3c:8c:0c:0d
                Exponent: 65537 (0x10001)
        X509v3 extensions:
            X509v3 Basic Constraints: 
                CA:FALSE
            Netscape Comment: 
                OpenSSL Generated Certificate
            X509v3 Subject Key Identifier: 
                3F:0E:F0:EA:C5:EF:79:CA:41:D9:CC:77:52:3C:03:C4:2A:43:C0:FF
            X509v3 Authority Key Identifier: 
                keyid:91:8E:A4:3A:68:A4:1C:55:92:E4:11:2E:91:FD:AC:06:1A:88:B0:31
                DirName:/C=IT/ST=TO/L=TORINO/O=ASL4/OU=CED/CN=CED-ASL4/emailAddress=Michele.fasciana@asl4.to.it
                serial:00

    Signature Algorithm: md5WithRSAEncryption
        34:57:6d:f3:63:16:3d:d8:16:b1:65:b7:11:69:bd:5b:73:c7:
        46:67:c9:26:c6:70:b9:c3:31:5e:13:57:25:3c:39:75:5a:57:
        56:f2:16:08:04:a3:ff:9e:6d:99:bf:5c:3e:c3:42:8f:ee:02:
        68:b8:2e:05:fe:12:97:3d:5b:11:33:5e:39:e1:c5:d8:91:39:
        79:6d:ac:89:b9:d1:9e:05:6f:8c:4e:07:28:f6:42:90:1c:6a:
        88:f0:ff:61:ad:5e:76:06:be:76:26:92:31:c1:e4:13:65:97:
        ea:db:7c:c1:54:d2:85:5a:a8:43:f9:89:b8:00:20:59:41:da:
        97:bf
-----BEGIN CERTIFICATE-----
MIIDjDCCAvWgAwIBAgICAJgwDQYJKoZIhvcNAQEEBQAwgYcxCzAJBgNVBAYTAklU
MQswCQYDVQQIEwJUTzEPMA0GA1UEBxMGVE9SSU5PMQ0wCwYDVQQKEwRBU0w0MQww
CgYDVQQLEwNDRUQxETAPBgNVBAMTCENFRC1BU0w0MSowKAYJKoZIhvcNAQkBFhtN
aWNoZWxlLmZhc2NpYW5hQGFzbDQudG8uaXQwHhcNMDkwNDA5MTAxMjQ0WhcNMTkw
NDA3MTAxMjQ0WjB4MQswCQYDVQQGEwJJVDELMAkGA1UECBMCVE8xDzANBgNVBAcT
BlRPUklOTzERMA8GA1UEChMIQ0VELUFTTDQxGTAXBgNVBAMUEGRpYW5vZW1hX2di
b3Njb3AxHTAbBgkqhkiG9w0BCQEWDmNlZEBhc2w0LnRvLml0MIGfMA0GCSqGSIb3
DQEBAQUAA4GNADCBiQKBgQDJxEjnnUyKDf4gTw96doBqeY+ZabZZee28LGTtC1vJ
IaEGWUaZnlNfcwiBlDOXNO66N80IZzHo/nixrVFcM1zEJVuiFj0jljoe9zIxC0An
caW2Df94kdRTLvKQRSJzIaXrMG0XRZjVme6MYeqzKOthAO8vZORA4Wmbbs2LPIwM
DQIDAQABo4IBEzCCAQ8wCQYDVR0TBAIwADAsBglghkgBhvhCAQ0EHxYdT3BlblNT
TCBHZW5lcmF0ZWQgQ2VydGlmaWNhdGUwHQYDVR0OBBYEFD8O8OrF73nKQdnMd1I8
A8QqQ8D/MIG0BgNVHSMEgawwgamAFJGOpDpopBxVkuQRLpH9rAYaiLAxoYGNpIGK
MIGHMQswCQYDVQQGEwJJVDELMAkGA1UECBMCVE8xDzANBgNVBAcTBlRPUklOTzEN
MAsGA1UEChMEQVNMNDEMMAoGA1UECxMDQ0VEMREwDwYDVQQDEwhDRUQtQVNMNDEq
MCgGCSqGSIb3DQEJARYbTWljaGVsZS5mYXNjaWFuYUBhc2w0LnRvLml0ggEAMA0G
CSqGSIb3DQEBBAUAA4GBADRXbfNjFj3YFrFltxFpvVtzx0ZnySbGcLnDMV4TVyU8
OXVaV1byFggEo/+ebZm/XD7DQo/uAmi4LgX+Epc9WxEzXjnhxdiROXltrIm50Z4F
b4xOByj2QpAcaojw/2GtXnYGvnYmkjHB5BNll+rbfMFU0oVaqEP5ibgAIFlB2pe/
-----END CERTIFICATE-----
