Certificate:
    Data:
        Version: 3 (0x2)
        Serial Number: 24 (0x18)
        Signature Algorithm: md5WithRSAEncryption
        Issuer: C=IT, ST=RO, L=ADRIA, O=Ulss 19, OU=Ced, CN=OpenVPN-CA/emailAddress=andrea@skystorm.net
        Validity
            Not Before: Feb 16 12:22:23 2009 GMT
            Not After : Feb 14 12:22:23 2019 GMT
        Subject: C=IT, ST=RO, O=Ulss 19, CN=HelpNoema/emailAddress=andrea@skystorm.net
        Subject Public Key Info:
            Public Key Algorithm: rsaEncryption
            RSA Public Key: (2048 bit)
                Modulus (2048 bit):
                    00:af:04:44:73:99:cf:03:2b:49:c7:82:8e:f4:96:
                    23:33:7d:10:f9:dd:ef:a9:94:29:39:c1:a5:2c:a7:
                    70:6f:e6:ba:d5:40:ba:10:cf:78:09:54:56:ab:40:
                    29:38:19:54:25:0b:18:4a:44:01:9b:f9:71:39:78:
                    70:0c:07:5d:b5:5b:33:de:bd:03:d4:3b:72:75:fc:
                    9d:6f:c7:30:a5:ae:21:69:b8:a0:27:8d:bb:f6:23:
                    e4:eb:a9:a7:c0:1e:04:a8:5c:90:5e:05:3b:75:9e:
                    72:6c:19:71:36:91:7b:5d:2f:ca:75:35:7c:db:13:
                    11:68:38:1a:b5:d4:6a:21:13:63:df:de:11:75:17:
                    07:61:c6:bd:fa:05:8f:20:c8:10:f7:7c:8b:0c:89:
                    e7:cc:d3:4b:59:4a:b1:b4:35:2b:e4:24:43:98:8b:
                    36:ae:95:12:38:4a:f2:06:36:a6:df:00:f6:a0:68:
                    a8:ea:bc:2f:5a:72:5e:af:56:50:67:98:01:05:73:
                    ab:4b:0a:de:a4:07:15:44:fa:b5:e5:06:79:f0:45:
                    4a:29:13:6b:2b:2e:9c:b8:99:bb:43:e5:18:05:af:
                    99:aa:01:1a:f4:84:24:28:54:da:7f:2a:2f:19:4f:
                    b1:7e:73:bb:0f:16:0a:a7:30:39:2d:e1:19:b8:88:
                    db:2d
                Exponent: 65537 (0x10001)
        X509v3 extensions:
            X509v3 Basic Constraints: 
                CA:FALSE
            Netscape Comment: 
                OpenSSL Generated Certificate
            X509v3 Subject Key Identifier: 
                59:06:0C:BB:90:78:2F:61:1E:B3:C9:92:2B:61:E3:F7:86:E8:52:B9
            X509v3 Authority Key Identifier: 
                keyid:16:F2:DC:BF:8B:06:8B:0E:A9:EC:EE:4F:F2:34:14:35:05:1B:BD:19
                DirName:/C=IT/ST=RO/L=ADRIA/O=Ulss 19/OU=Ced/CN=OpenVPN-CA/emailAddress=andrea@skystorm.net
                serial:E3:F0:EA:40:56:36:EF:05

    Signature Algorithm: md5WithRSAEncryption
        61:2b:a0:03:f3:a8:bb:66:36:3f:cc:94:3a:12:f7:5d:ea:9e:
        97:23:9f:23:f9:3d:b7:4d:a8:f5:61:39:91:61:ca:78:49:d5:
        e0:65:5b:c6:f9:7c:a3:2d:0f:90:24:b3:fd:ef:9a:66:a3:98:
        dc:93:f8:1a:de:59:69:12:ab:f7:49:ac:8c:60:03:1b:ce:d4:
        6d:e1:a6:e3:fd:43:5e:88:ef:b9:b7:8a:04:d9:d9:9f:74:14:
        74:ec:40:ce:6c:18:f1:ae:fc:76:f4:01:14:fa:cd:fa:90:27:
        22:2c:65:b2:aa:5b:eb:31:47:22:28:53:ab:14:60:55:d0:b8:
        f0:2a:7a:2d:41:dd:29:3d:73:70:38:8d:44:de:a6:28:26:58:
        dc:62:c9:d4:d6:93:85:6d:66:fb:48:58:0d:98:2d:47:e5:a5:
        cf:c8:13:3d:f3:69:9d:79:61:8f:53:04:d0:8c:28:69:81:a2:
        12:3c:89:76:ab:70:29:9c:85:16:c1:41:d6:65:5a:b1:9d:41:
        83:34:07:4e:65:80:6c:6d:50:9a:26:57:2f:86:5e:61:dc:d7:
        52:1b:3e:ad:d5:02:04:b9:01:e6:a4:d7:2d:a8:07:46:2a:9e:
        72:ad:1d:18:96:c0:c7:19:2f:d0:02:16:3b:bc:d7:48:b7:8c:
        53:4b:02:7e
-----BEGIN CERTIFICATE-----
MIIEfDCCA2SgAwIBAgIBGDANBgkqhkiG9w0BAQQFADCBgzELMAkGA1UEBhMCSVQx
CzAJBgNVBAgTAlJPMQ4wDAYDVQQHEwVBRFJJQTEQMA4GA1UEChMHVWxzcyAxOTEM
MAoGA1UECxMDQ2VkMRMwEQYDVQQDEwpPcGVuVlBOLUNBMSIwIAYJKoZIhvcNAQkB
FhNhbmRyZWFAc2t5c3Rvcm0ubmV0MB4XDTA5MDIxNjEyMjIyM1oXDTE5MDIxNDEy
MjIyM1owZDELMAkGA1UEBhMCSVQxCzAJBgNVBAgTAlJPMRAwDgYDVQQKEwdVbHNz
IDE5MRIwEAYDVQQDEwlIZWxwTm9lbWExIjAgBgkqhkiG9w0BCQEWE2FuZHJlYUBz
a3lzdG9ybS5uZXQwggEiMA0GCSqGSIb3DQEBAQUAA4IBDwAwggEKAoIBAQCvBERz
mc8DK0nHgo70liMzfRD53e+plCk5waUsp3Bv5rrVQLoQz3gJVFarQCk4GVQlCxhK
RAGb+XE5eHAMB121WzPevQPUO3J1/J1vxzClriFpuKAnjbv2I+TrqafAHgSoXJBe
BTt1nnJsGXE2kXtdL8p1NXzbExFoOBq11GohE2Pf3hF1Fwdhxr36BY8gyBD3fIsM
iefM00tZSrG0NSvkJEOYizaulRI4SvIGNqbfAPagaKjqvC9acl6vVlBnmAEFc6tL
Ct6kBxVE+rXlBnnwRUopE2srLpy4mbtD5RgFr5mqARr0hCQoVNp/Ki8ZT7F+c7sP
FgqnMDkt4Rm4iNstAgMBAAGjggEXMIIBEzAJBgNVHRMEAjAAMCwGCWCGSAGG+EIB
DQQfFh1PcGVuU1NMIEdlbmVyYXRlZCBDZXJ0aWZpY2F0ZTAdBgNVHQ4EFgQUWQYM
u5B4L2Ees8mSK2Hj94boUrkwgbgGA1UdIwSBsDCBrYAUFvLcv4sGiw6p7O5P8jQU
NQUbvRmhgYmkgYYwgYMxCzAJBgNVBAYTAklUMQswCQYDVQQIEwJSTzEOMAwGA1UE
BxMFQURSSUExEDAOBgNVBAoTB1Vsc3MgMTkxDDAKBgNVBAsTA0NlZDETMBEGA1UE
AxMKT3BlblZQTi1DQTEiMCAGCSqGSIb3DQEJARYTYW5kcmVhQHNreXN0b3JtLm5l
dIIJAOPw6kBWNu8FMA0GCSqGSIb3DQEBBAUAA4IBAQBhK6AD86i7ZjY/zJQ6Evdd
6p6XI58j+T23Taj1YTmRYcp4SdXgZVvG+XyjLQ+QJLP975pmo5jck/ga3llpEqv3
SayMYAMbztRt4abj/UNeiO+5t4oE2dmfdBR07EDObBjxrvx29AEU+s36kCciLGWy
qlvrMUciKFOrFGBV0LjwKnotQd0pPXNwOI1E3qYoJljcYsnU1pOFbWb7SFgNmC1H
5aXPyBM982mdeWGPUwTQjChpgaISPIl2q3ApnIUWwUHWZVqxnUGDNAdOZYBsbVCa
Jlcvhl5h3NdSGz6t1QIEuQHmpNctqAdGKp5yrR0YlsDHGS/QAhY7vNdIt4xTSwJ+
-----END CERTIFICATE-----
