Certificate:
    Data:
        Version: 3 (0x2)
        Serial Number: 703 (0x2bf)
        Signature Algorithm: md5WithRSAEncryption
        Issuer: C=IT, ST=PR, L=Parma, O=Ausl Parma/emailAddress=tecnico@studiostorti.com
        Validity
            Not Before: Apr 19 10:13:07 2012 GMT
            Not After : Apr 29 10:13:07 2013 GMT
        Subject: C=IT, ST=PR, L=Parma, O=Ausl Parma, OU=Serv RIT, CN=noem1_bbaraldi_5_b/emailAddress=bbaraldi@noemalife.com
        Subject Public Key Info:
            Public Key Algorithm: rsaEncryption
            RSA Public Key: (2048 bit)
                Modulus (2048 bit):
                    00:dc:61:ef:7d:d3:d9:7c:cf:3c:28:34:4d:1f:e4:
                    21:f6:a0:3a:64:10:84:f7:bc:dc:93:b0:7d:a2:74:
                    73:88:23:10:50:26:8d:00:9a:e7:a5:86:a3:dd:b3:
                    e9:32:39:e2:5c:05:a0:ec:bb:88:54:c9:04:12:79:
                    63:cd:3a:cd:96:e9:89:d3:a7:f5:75:c2:a0:48:33:
                    b8:68:74:a2:ff:27:d4:70:57:c4:b2:1c:19:7d:06:
                    c8:93:a0:40:2d:8b:97:c7:f4:32:53:39:bb:18:b8:
                    8c:5e:03:7c:67:bf:b1:73:c6:d7:ea:bd:54:03:67:
                    76:a7:4a:35:ca:8d:ec:b4:87:61:3b:2b:8b:e0:e0:
                    0a:4d:fa:f9:8a:5f:2d:6e:94:64:1a:d2:c2:28:5a:
                    d8:a9:58:a6:ca:3d:b9:e8:09:14:ee:c9:0a:92:02:
                    78:83:0c:d5:93:4e:2a:6c:4d:14:50:09:d6:de:f3:
                    97:25:00:f9:fe:99:66:83:84:35:6c:d2:f3:0b:c3:
                    f0:0c:e3:ea:92:44:f3:95:9e:b0:e7:d5:53:1d:d5:
                    d1:3f:cb:12:a4:2f:1c:63:af:8c:b5:f8:63:6f:c2:
                    9f:a1:f5:ec:cd:4c:18:b0:a9:f4:b8:16:be:ca:97:
                    04:70:31:32:c3:5f:e0:3a:50:de:18:b0:ff:cd:53:
                    af:37
                Exponent: 65537 (0x10001)
        X509v3 extensions:
            X509v3 Basic Constraints: 
                CA:FALSE
            Netscape Comment: 
                OpenSSL Generated Certificate
            X509v3 Subject Key Identifier: 
                18:93:6C:30:21:13:DE:60:CC:68:CB:EE:9C:4B:D4:A1:51:1B:4E:63
            X509v3 Authority Key Identifier: 
                keyid:A0:A3:30:83:8D:44:08:3B:30:98:59:19:A1:14:84:5C:7C:F3:6D:52
                DirName:/C=IT/ST=PR/L=Parma/O=Ausl Parma/emailAddress=tecnico@studiostorti.com
                serial:EF:B7:19:D2:1E:07:10:68

    Signature Algorithm: md5WithRSAEncryption
        1c:34:81:c7:9e:91:0a:fb:02:3d:46:5f:bb:95:02:2c:7f:f8:
        93:1b:df:da:3f:9b:5b:13:5c:cf:f1:66:98:91:5a:b0:a6:42:
        b2:3b:21:66:5b:31:e0:f7:1b:a3:9d:ce:3c:6b:d9:51:ee:92:
        4a:65:5d:b2:96:e6:2f:90:a6:c0:c0:28:6b:6c:f8:50:0e:01:
        be:87:41:fb:65:d2:72:7b:f1:07:ff:cb:83:23:98:97:55:fd:
        72:ca:d5:96:f2:48:ee:0b:3f:bd:9a:98:69:ba:69:62:ab:69:
        1d:50:0c:6e:a3:7c:5f:3c:ed:77:ad:c6:ca:ad:fc:fc:c5:ee:
        f3:b7:cf:be:0a:09:d9:31:c5:51:9e:bb:df:ef:f4:82:e0:af:
        04:19:b6:f4:6f:78:bd:43:be:7f:2b:ef:8b:1a:9e:ce:03:ee:
        ab:b2:fd:12:d5:a7:dc:7b:1c:07:d3:c1:42:00:64:3d:cb:9a:
        23:9b:0d:6c:35:4f:ec:14:c5:d3:f2:be:47:f4:5a:dd:48:3e:
        b7:8e:7c:b4:ba:90:2a:fb:79:a7:c4:a0:75:94:7c:4f:7f:c4:
        41:bd:71:7e:95:16:27:e7:b8:2a:9c:66:8c:6c:3e:fe:a5:9f:
        93:f8:b5:83:95:dc:fa:75:05:6c:72:ab:1f:d8:e3:2c:af:f9:
        dc:bb:3e:6e
-----BEGIN CERTIFICATE-----
MIIEdDCCA1ygAwIBAgICAr8wDQYJKoZIhvcNAQEEBQAwaDELMAkGA1UEBhMCSVQx
CzAJBgNVBAgTAlBSMQ4wDAYDVQQHEwVQYXJtYTETMBEGA1UEChMKQXVzbCBQYXJt
YTEnMCUGCSqGSIb3DQEJARYYdGVjbmljb0BzdHVkaW9zdG9ydGkuY29tMB4XDTEy
MDQxOTEwMTMwN1oXDTEzMDQyOTEwMTMwN1owgZYxCzAJBgNVBAYTAklUMQswCQYD
VQQIEwJQUjEOMAwGA1UEBxMFUGFybWExEzARBgNVBAoTCkF1c2wgUGFybWExETAP
BgNVBAsTCFNlcnYgUklUMRswGQYDVQQDFBJub2VtMV9iYmFyYWxkaV81X2IxJTAj
BgkqhkiG9w0BCQEWFmJiYXJhbGRpQG5vZW1hbGlmZS5jb20wggEiMA0GCSqGSIb3
DQEBAQUAA4IBDwAwggEKAoIBAQDcYe9909l8zzwoNE0f5CH2oDpkEIT3vNyTsH2i
dHOIIxBQJo0AmuelhqPds+kyOeJcBaDsu4hUyQQSeWPNOs2W6YnTp/V1wqBIM7ho
dKL/J9RwV8SyHBl9BsiToEAti5fH9DJTObsYuIxeA3xnv7FzxtfqvVQDZ3anSjXK
jey0h2E7K4vg4ApN+vmKXy1ulGQa0sIoWtipWKbKPbnoCRTuyQqSAniDDNWTTips
TRRQCdbe85clAPn+mWaDhDVs0vMLw/AM4+qSRPOVnrDn1VMd1dE/yxKkLxxjr4y1
+GNvwp+h9ezNTBiwqfS4Fr7KlwRwMTLDX+A6UN4YsP/NU683AgMBAAGjgfgwgfUw
CQYDVR0TBAIwADAsBglghkgBhvhCAQ0EHxYdT3BlblNTTCBHZW5lcmF0ZWQgQ2Vy
dGlmaWNhdGUwHQYDVR0OBBYEFBiTbDAhE95gzGjL7pxL1KFRG05jMIGaBgNVHSME
gZIwgY+AFKCjMIONRAg7MJhZGaEUhFx8821SoWykajBoMQswCQYDVQQGEwJJVDEL
MAkGA1UECBMCUFIxDjAMBgNVBAcTBVBhcm1hMRMwEQYDVQQKEwpBdXNsIFBhcm1h
MScwJQYJKoZIhvcNAQkBFhh0ZWNuaWNvQHN0dWRpb3N0b3J0aS5jb22CCQDvtxnS
HgcQaDANBgkqhkiG9w0BAQQFAAOCAQEAHDSBx56RCvsCPUZfu5UCLH/4kxvf2j+b
WxNcz/FmmJFasKZCsjshZlsx4Pcbo53OPGvZUe6SSmVdspbmL5CmwMAoa2z4UA4B
vodB+2XScnvxB//LgyOYl1X9csrVlvJI7gs/vZqYabppYqtpHVAMbqN8Xzztd63G
yq38/MXu87fPvgoJ2THFUZ673+/0guCvBBm29G94vUO+fyvvixqezgPuq7L9EtWn
3HscB9PBQgBkPcuaI5sNbDVP7BTF0/K+R/Ra3Ug+t458tLqQKvt5p8SgdZR8T3/E
Qb1xfpUWJ+e4KpxmjGw+/qWfk/i1g5Xc+nUFbHKrH9jjLK/53Ls+bg==
-----END CERTIFICATE-----
