Certificate:
    Data:
        Version: 3 (0x2)
        Serial Number: 14 (0xe)
        Signature Algorithm: md5WithRSAEncryption
        Issuer: C=IT, ST=LU, L=VERSILIA, O=OpenVPN-AUSL12-VG, CN=AUSL12VPN/emailAddress=g.beani@usl12.toscana.it
        Validity
            Not Before: Jun 26 08:13:53 2008 GMT
            Not After : Jun 24 08:13:53 2018 GMT
        Subject: C=IT, ST=LU, O=OpenVPN-AUSL12-VG, CN=NOEMATICA3/emailAddress=helpdesk@noemalife.com
        Subject Public Key Info:
            Public Key Algorithm: rsaEncryption
            RSA Public Key: (1024 bit)
                Modulus (1024 bit):
                    00:b3:f7:bd:ff:dc:11:06:23:e6:8f:6c:38:38:64:
                    28:fe:0a:9e:9d:e1:24:ef:56:ee:1c:f9:c0:fd:1a:
                    f6:f1:2f:4d:2a:9e:7a:49:81:3b:51:8f:49:b8:ab:
                    42:7f:2a:02:99:3a:35:83:3b:96:87:7e:84:3c:85:
                    57:b0:55:94:2b:f8:f3:fa:1f:0b:9f:c8:be:f9:91:
                    c1:91:53:b8:31:df:e4:b4:fb:7a:50:03:3d:b1:2e:
                    0e:4e:07:33:eb:d5:ce:f4:95:d9:51:60:17:7e:28:
                    01:8a:4d:f1:fd:26:1d:f2:ce:97:27:b7:83:80:34:
                    7a:64:4d:c3:1e:29:e1:63:79
                Exponent: 65537 (0x10001)
        X509v3 extensions:
            X509v3 Basic Constraints: 
                CA:FALSE
            Netscape Comment: 
                OpenSSL Generated Certificate
            X509v3 Subject Key Identifier: 
                22:F7:FC:44:8D:E4:06:08:96:C1:88:A0:9B:22:3D:A5:E2:78:CF:27
            X509v3 Authority Key Identifier: 
                keyid:80:51:1F:40:65:CD:F0:53:25:35:1E:36:6A:E1:E8:33:25:60:2B:54
                DirName:/C=IT/ST=LU/L=VERSILIA/O=OpenVPN-AUSL12-VG/CN=AUSL12VPN/emailAddress=g.beani@usl12.toscana.it
                serial:9C:FD:C5:9E:27:F4:AF:7D

    Signature Algorithm: md5WithRSAEncryption
        49:55:43:b0:ee:36:16:85:8f:e3:36:0f:db:cb:f1:31:cb:f4:
        f5:1b:d6:30:eb:19:4c:b5:14:bb:5d:c7:bd:aa:b9:6b:13:fe:
        79:22:28:9a:00:13:49:d1:c7:ef:a3:8a:1b:cf:c5:69:4c:34:
        05:94:87:4f:22:8b:94:27:92:16:d5:4e:77:70:74:0b:ad:8b:
        9f:3b:b0:1e:cd:04:6e:10:5a:37:27:73:ce:db:fd:4f:08:90:
        1c:8c:1c:26:33:65:da:97:c4:2c:8b:13:28:6b:28:d5:71:4b:
        7d:97:3f:ab:36:ef:57:62:dd:44:bc:ab:1d:1c:d6:4c:c3:52:
        02:f8
-----BEGIN CERTIFICATE-----
MIIDizCCAvSgAwIBAgIBDjANBgkqhkiG9w0BAQQFADCBhjELMAkGA1UEBhMCSVQx
CzAJBgNVBAgTAkxVMREwDwYDVQQHEwhWRVJTSUxJQTEaMBgGA1UEChMRT3BlblZQ
Ti1BVVNMMTItVkcxEjAQBgNVBAMTCUFVU0wxMlZQTjEnMCUGCSqGSIb3DQEJARYY
Zy5iZWFuaUB1c2wxMi50b3NjYW5hLml0MB4XDTA4MDYyNjA4MTM1M1oXDTE4MDYy
NDA4MTM1M1owcjELMAkGA1UEBhMCSVQxCzAJBgNVBAgTAkxVMRowGAYDVQQKExFP
cGVuVlBOLUFVU0wxMi1WRzETMBEGA1UEAxMKTk9FTUFUSUNBMzElMCMGCSqGSIb3
DQEJARYWaGVscGRlc2tAbm9lbWFsaWZlLmNvbTCBnzANBgkqhkiG9w0BAQEFAAOB
jQAwgYkCgYEAs/e9/9wRBiPmj2w4OGQo/gqeneEk71buHPnA/Rr28S9NKp56SYE7
UY9JuKtCfyoCmTo1gzuWh36EPIVXsFWUK/jz+h8Ln8i++ZHBkVO4Md/ktPt6UAM9
sS4OTgcz69XO9JXZUWAXfigBik3x/SYd8s6XJ7eDgDR6ZE3DHinhY3kCAwEAAaOC
ARowggEWMAkGA1UdEwQCMAAwLAYJYIZIAYb4QgENBB8WHU9wZW5TU0wgR2VuZXJh
dGVkIENlcnRpZmljYXRlMB0GA1UdDgQWBBQi9/xEjeQGCJbBiKCbIj2l4njPJzCB
uwYDVR0jBIGzMIGwgBSAUR9AZc3wUyU1HjZq4egzJWArVKGBjKSBiTCBhjELMAkG
A1UEBhMCSVQxCzAJBgNVBAgTAkxVMREwDwYDVQQHEwhWRVJTSUxJQTEaMBgGA1UE
ChMRT3BlblZQTi1BVVNMMTItVkcxEjAQBgNVBAMTCUFVU0wxMlZQTjEnMCUGCSqG
SIb3DQEJARYYZy5iZWFuaUB1c2wxMi50b3NjYW5hLml0ggkAnP3Fnif0r30wDQYJ
KoZIhvcNAQEEBQADgYEASVVDsO42FoWP4zYP28vxMcv09RvWMOsZTLUUu13Hvaq5
axP+eSIomgATSdHH76OKG8/FaUw0BZSHTyKLlCeSFtVOd3B0C62LnzuwHs0EbhBa
Nydzztv9TwiQHIwcJjNl2pfELIsTKGso1XFLfZc/qzbvV2LdRLyrHRzWTMNSAvg=
-----END CERTIFICATE-----
