Certificate:
    Data:
        Version: 3 (0x2)
        Serial Number: 95 (0x5f)
        Signature Algorithm: md5WithRSAEncryption
        Issuer: C=IT, ST=MI, L=Milano, O=Sistemi_informativi/emailAddress=mangoni.massimiliano@hsacco.it
        Validity
            Not Before: Jan 26 10:28:47 2010 GMT
            Not After : Jan 24 10:28:47 2020 GMT
        Subject: C=IT, ST=MI, L=Milano, O=Sistemi_informativi, OU=Office, CN=noemalife.varesi.roberto/emailAddress=mangoni.massimiliano@hsacco.it
        Subject Public Key Info:
            Public Key Algorithm: rsaEncryption
            RSA Public Key: (2048 bit)
                Modulus (2048 bit):
                    00:b2:24:b3:30:5b:e2:96:e5:65:e6:64:56:9b:14:
                    6d:03:24:26:92:11:d3:63:13:14:e2:0b:ce:b0:6c:
                    47:3a:d8:f5:45:4d:63:4b:fb:e1:d4:8c:27:d3:bf:
                    b6:cd:27:fc:c4:7e:ce:88:ab:05:82:a0:2c:08:4b:
                    77:03:22:eb:7c:2c:0f:75:d8:7a:3d:1f:41:06:a5:
                    3f:bc:b5:e4:a2:52:ca:5c:7f:88:cb:58:7d:1a:6c:
                    8a:0c:fb:e4:6f:d7:f0:d1:4b:12:aa:54:33:c5:84:
                    48:5e:7f:7f:b6:c3:21:be:77:9c:55:9e:5a:41:51:
                    dd:4c:42:02:08:ed:d2:6c:ca:bb:b2:f5:5c:e0:13:
                    fe:2c:64:7c:93:0e:02:69:87:55:c9:95:9c:3d:1d:
                    ba:8b:fc:5b:55:0e:6a:4f:aa:f4:c3:69:d7:20:24:
                    6d:4c:80:51:10:ac:34:4a:83:20:7f:b2:b5:05:7a:
                    46:e2:5b:7c:0d:ab:87:b0:1e:d9:99:54:d8:c8:27:
                    da:cc:d3:10:5b:56:0a:86:8b:69:2c:c6:09:8e:50:
                    bd:de:ee:90:ca:25:b2:95:a3:eb:51:44:17:12:54:
                    ef:c4:a7:dd:c8:c4:05:17:ce:09:84:4b:56:e7:cb:
                    31:3f:96:72:34:fd:80:34:80:bc:b5:c5:86:70:25:
                    66:65
                Exponent: 65537 (0x10001)
        X509v3 extensions:
            X509v3 Basic Constraints: 
                CA:FALSE
            Netscape Comment: 
                OpenSSL Generated Certificate
            X509v3 Subject Key Identifier: 
                20:B1:86:63:DF:8B:A7:B4:FB:CB:DF:D8:FF:0C:D8:E1:BC:83:A1:BC
            X509v3 Authority Key Identifier: 
                keyid:6D:D1:3B:A3:26:76:35:AB:6A:FE:D6:B0:CC:72:DD:9B:6E:33:80:B4
                DirName:/C=IT/ST=MI/L=Milano/O=Sistemi_informativi/emailAddress=mangoni.massimiliano@hsacco.it
                serial:AB:57:6C:5F:73:CF:1A:C5

    Signature Algorithm: md5WithRSAEncryption
        b5:b9:c4:61:e8:47:12:a5:e5:94:42:ba:69:c3:2f:5b:d0:ac:
        0d:50:35:82:6a:a0:27:39:8f:ab:62:e4:8e:f1:df:b0:7e:4e:
        86:25:35:c9:1e:32:5f:83:86:1e:ac:82:18:74:72:d7:87:01:
        9d:f6:97:c4:db:5d:5d:10:9e:ea:0d:9b:68:39:ca:0f:72:07:
        0f:11:ce:54:93:bf:38:84:1b:29:48:e0:b8:ca:cd:fb:9a:03:
        10:ce:03:d8:6d:0d:b3:c2:e6:7c:a7:83:1a:13:1e:59:00:88:
        53:3d:77:2d:ab:c9:9b:24:9f:6f:9e:1f:88:49:3b:89:6e:a3:
        b0:59:8e:84:2c:94:f9:32:84:17:d0:b1:75:8f:2f:fb:48:09:
        35:5b:6b:78:6b:94:f3:b5:77:b6:17:ba:a0:10:6b:17:dc:70:
        3d:79:ce:3d:73:ed:2b:6f:38:8e:9a:89:50:89:e3:ec:76:10:
        46:69:10:5a:b3:6c:0d:a0:97:e7:cc:3a:d3:cf:a6:31:57:a8:
        e5:b3:f4:40:75:80:05:e7:9e:1d:a8:42:d8:a4:91:09:c8:a7:
        a3:ab:bc:ad:f1:65:48:d2:2b:d3:45:e9:25:3b:58:8a:d9:4b:
        0c:0b:49:0a:03:fc:c4:2a:33:50:aa:7f:cb:68:98:90:11:70:
        ae:95:7d:dc
-----BEGIN CERTIFICATE-----
MIIEqzCCA5OgAwIBAgIBXzANBgkqhkiG9w0BAQQFADB4MQswCQYDVQQGEwJJVDEL
MAkGA1UECBMCTUkxDzANBgNVBAcTBk1pbGFubzEcMBoGA1UEChQTU2lzdGVtaV9p
bmZvcm1hdGl2aTEtMCsGCSqGSIb3DQEJARYebWFuZ29uaS5tYXNzaW1pbGlhbm9A
aHNhY2NvLml0MB4XDTEwMDEyNjEwMjg0N1oXDTIwMDEyNDEwMjg0N1owgawxCzAJ
BgNVBAYTAklUMQswCQYDVQQIEwJNSTEPMA0GA1UEBxMGTWlsYW5vMRwwGgYDVQQK
FBNTaXN0ZW1pX2luZm9ybWF0aXZpMQ8wDQYDVQQLEwZPZmZpY2UxITAfBgNVBAMT
GG5vZW1hbGlmZS52YXJlc2kucm9iZXJ0bzEtMCsGCSqGSIb3DQEJARYebWFuZ29u
aS5tYXNzaW1pbGlhbm9AaHNhY2NvLml0MIIBIjANBgkqhkiG9w0BAQEFAAOCAQ8A
MIIBCgKCAQEAsiSzMFviluVl5mRWmxRtAyQmkhHTYxMU4gvOsGxHOtj1RU1jS/vh
1Iwn07+2zSf8xH7OiKsFgqAsCEt3AyLrfCwPddh6PR9BBqU/vLXkolLKXH+Iy1h9
GmyKDPvkb9fw0UsSqlQzxYRIXn9/tsMhvnecVZ5aQVHdTEICCO3SbMq7svVc4BP+
LGR8kw4CaYdVyZWcPR26i/xbVQ5qT6r0w2nXICRtTIBREKw0SoMgf7K1BXpG4lt8
DauHsB7ZmVTYyCfazNMQW1YKhotpLMYJjlC93u6QyiWylaPrUUQXElTvxKfdyMQF
F84JhEtW58sxP5ZyNP2ANIC8tcWGcCVmZQIDAQABo4IBCTCCAQUwCQYDVR0TBAIw
ADAsBglghkgBhvhCAQ0EHxYdT3BlblNTTCBHZW5lcmF0ZWQgQ2VydGlmaWNhdGUw
HQYDVR0OBBYEFCCxhmPfi6e0+8vf2P8M2OG8g6G8MIGqBgNVHSMEgaIwgZ+AFG3R
O6MmdjWrav7WsMxy3ZtuM4C0oXykejB4MQswCQYDVQQGEwJJVDELMAkGA1UECBMC
TUkxDzANBgNVBAcTBk1pbGFubzEcMBoGA1UEChQTU2lzdGVtaV9pbmZvcm1hdGl2
aTEtMCsGCSqGSIb3DQEJARYebWFuZ29uaS5tYXNzaW1pbGlhbm9AaHNhY2NvLml0
ggkAq1dsX3PPGsUwDQYJKoZIhvcNAQEEBQADggEBALW5xGHoRxKl5ZRCumnDL1vQ
rA1QNYJqoCc5j6ti5I7x37B+ToYlNckeMl+Dhh6sghh0cteHAZ32l8TbXV0QnuoN
m2g5yg9yBw8RzlSTvziEGylI4LjKzfuaAxDOA9htDbPC5nyngxoTHlkAiFM9dy2r
yZskn2+eH4hJO4luo7BZjoQslPkyhBfQsXWPL/tICTVba3hrlPO1d7YXuqAQaxfc
cD15zj1z7StvOI6aiVCJ4+x2EEZpEFqzbA2gl+fMOtPPpjFXqOWz9EB1gAXnnh2o
QtikkQnIp6OrvK3xZUjSK9NF6SU7WIrZSwwLSQoD/MQqM1Cqf8tomJARcK6Vfdw=
-----END CERTIFICATE-----
