Certificate:
    Data:
        Version: 3 (0x2)
        Serial Number: 700 (0x2bc)
        Signature Algorithm: md5WithRSAEncryption
        Issuer: C=IT, ST=PR, L=Parma, O=Ausl Parma/emailAddress=tecnico@studiostorti.com
        Validity
            Not Before: Apr 19 10:07:48 2012 GMT
            Not After : Apr 29 10:07:48 2013 GMT
        Subject: C=IT, ST=PR, L=Parma, O=Ausl Parma, OU=Serv RIT, CN=noem1_bbaraldi_8_b/emailAddress=bbaraldi@noemalife.com
        Subject Public Key Info:
            Public Key Algorithm: rsaEncryption
            RSA Public Key: (2048 bit)
                Modulus (2048 bit):
                    00:dd:56:1d:d3:9f:84:01:6c:ca:86:f4:c3:fa:6d:
                    5c:1d:0b:8f:66:9e:4f:83:f1:dc:7f:fc:50:f1:5f:
                    9d:1b:9f:bb:8e:1b:0f:53:50:66:9a:bf:71:ef:32:
                    53:4e:12:c9:97:c3:99:eb:7b:c8:43:84:0d:52:d6:
                    58:8f:b5:ec:db:81:d7:36:d5:1d:0f:6b:cc:e4:4a:
                    e8:4a:8d:b9:3f:44:77:d8:1a:ba:b2:49:05:a5:7f:
                    a3:85:4a:7b:64:bd:6c:55:a7:e2:23:2b:27:0e:c9:
                    0f:bf:19:ff:e1:01:f0:0f:9e:f5:0d:33:0c:64:38:
                    11:f9:92:6a:19:65:a0:87:26:04:c2:cb:20:7d:24:
                    75:bb:49:5a:65:d5:8d:e2:f1:f3:b6:9a:b5:27:4b:
                    fe:fc:46:6d:12:3e:1c:af:90:fe:f5:9f:e5:e8:53:
                    14:4e:59:aa:b0:e0:2e:d9:1c:83:5b:66:04:ea:ea:
                    e4:d4:07:20:bb:71:6d:06:7b:43:97:43:bf:a7:57:
                    65:e2:55:b0:0b:e3:2b:d8:76:04:6d:72:51:76:b5:
                    f2:9c:59:33:7b:ab:f9:ae:fd:98:89:72:b1:c4:79:
                    ed:b8:04:e2:3e:de:33:87:32:64:48:32:79:81:7a:
                    81:98:cd:80:6a:01:39:52:76:66:6f:71:4c:44:fc:
                    5f:01
                Exponent: 65537 (0x10001)
        X509v3 extensions:
            X509v3 Basic Constraints: 
                CA:FALSE
            Netscape Comment: 
                OpenSSL Generated Certificate
            X509v3 Subject Key Identifier: 
                F7:63:63:B8:0D:D7:D9:8D:19:3E:20:AC:5B:B6:94:F5:D7:7C:57:5F
            X509v3 Authority Key Identifier: 
                keyid:A0:A3:30:83:8D:44:08:3B:30:98:59:19:A1:14:84:5C:7C:F3:6D:52
                DirName:/C=IT/ST=PR/L=Parma/O=Ausl Parma/emailAddress=tecnico@studiostorti.com
                serial:EF:B7:19:D2:1E:07:10:68

    Signature Algorithm: md5WithRSAEncryption
        20:04:e0:57:3b:54:ad:75:3a:4a:b0:94:ba:d3:02:75:0c:13:
        39:bf:6a:21:f6:b2:f7:49:43:b1:b4:aa:3f:12:47:24:65:36:
        66:af:b5:46:f3:72:e9:55:b9:ae:db:8b:4f:81:02:29:a6:48:
        09:89:71:79:cf:a8:2e:e8:07:87:a8:9a:c1:4c:75:8a:10:f9:
        e9:05:21:5d:aa:0c:ad:99:de:66:11:35:df:4d:57:4c:a5:b8:
        a5:17:46:72:b2:4c:f2:c2:44:d6:58:00:8d:8b:93:d9:1e:c2:
        d4:58:01:05:5b:0b:73:a3:b2:2f:66:44:97:44:83:e2:84:8d:
        ba:a1:18:64:6f:56:8e:7a:b1:7f:c7:c9:a2:88:28:a3:d5:63:
        32:28:fc:5a:10:0a:3d:f3:68:06:a5:a9:28:7a:2a:1f:7e:3c:
        1d:54:3a:1d:23:c0:7e:c8:94:d1:0d:3e:91:52:da:f8:8e:98:
        80:50:b6:e5:05:56:70:78:86:59:2c:51:33:ee:1c:84:78:f7:
        4d:58:a0:99:ac:b3:1d:7b:39:fd:92:fe:e7:3f:c8:98:0b:5d:
        d2:3f:c2:04:6c:a8:69:a9:36:be:5c:27:05:0a:57:1b:af:5e:
        cc:06:f5:b5:9b:a9:0f:d9:5a:fd:1f:40:97:b4:bb:7a:89:d4:
        5c:57:4a:e7
-----BEGIN CERTIFICATE-----
MIIEdDCCA1ygAwIBAgICArwwDQYJKoZIhvcNAQEEBQAwaDELMAkGA1UEBhMCSVQx
CzAJBgNVBAgTAlBSMQ4wDAYDVQQHEwVQYXJtYTETMBEGA1UEChMKQXVzbCBQYXJt
YTEnMCUGCSqGSIb3DQEJARYYdGVjbmljb0BzdHVkaW9zdG9ydGkuY29tMB4XDTEy
MDQxOTEwMDc0OFoXDTEzMDQyOTEwMDc0OFowgZYxCzAJBgNVBAYTAklUMQswCQYD
VQQIEwJQUjEOMAwGA1UEBxMFUGFybWExEzARBgNVBAoTCkF1c2wgUGFybWExETAP
BgNVBAsTCFNlcnYgUklUMRswGQYDVQQDFBJub2VtMV9iYmFyYWxkaV84X2IxJTAj
BgkqhkiG9w0BCQEWFmJiYXJhbGRpQG5vZW1hbGlmZS5jb20wggEiMA0GCSqGSIb3
DQEBAQUAA4IBDwAwggEKAoIBAQDdVh3Tn4QBbMqG9MP6bVwdC49mnk+D8dx//FDx
X50bn7uOGw9TUGaav3HvMlNOEsmXw5nre8hDhA1S1liPtezbgdc21R0Pa8zkSuhK
jbk/RHfYGrqySQWlf6OFSntkvWxVp+IjKycOyQ+/Gf/hAfAPnvUNMwxkOBH5kmoZ
ZaCHJgTCyyB9JHW7SVpl1Y3i8fO2mrUnS/78Rm0SPhyvkP71n+XoUxROWaqw4C7Z
HINbZgTq6uTUByC7cW0Ge0OXQ7+nV2XiVbAL4yvYdgRtclF2tfKcWTN7q/mu/ZiJ
crHEee24BOI+3jOHMmRIMnmBeoGYzYBqATlSdmZvcUxE/F8BAgMBAAGjgfgwgfUw
CQYDVR0TBAIwADAsBglghkgBhvhCAQ0EHxYdT3BlblNTTCBHZW5lcmF0ZWQgQ2Vy
dGlmaWNhdGUwHQYDVR0OBBYEFPdjY7gN19mNGT4grFu2lPXXfFdfMIGaBgNVHSME
gZIwgY+AFKCjMIONRAg7MJhZGaEUhFx8821SoWykajBoMQswCQYDVQQGEwJJVDEL
MAkGA1UECBMCUFIxDjAMBgNVBAcTBVBhcm1hMRMwEQYDVQQKEwpBdXNsIFBhcm1h
MScwJQYJKoZIhvcNAQkBFhh0ZWNuaWNvQHN0dWRpb3N0b3J0aS5jb22CCQDvtxnS
HgcQaDANBgkqhkiG9w0BAQQFAAOCAQEAIATgVztUrXU6SrCUutMCdQwTOb9qIfay
90lDsbSqPxJHJGU2Zq+1RvNy6VW5rtuLT4ECKaZICYlxec+oLugHh6iawUx1ihD5
6QUhXaoMrZneZhE1301XTKW4pRdGcrJM8sJE1lgAjYuT2R7C1FgBBVsLc6OyL2ZE
l0SD4oSNuqEYZG9Wjnqxf8fJoogoo9VjMij8WhAKPfNoBqWpKHoqH348HVQ6HSPA
fsiU0Q0+kVLa+I6YgFC25QVWcHiGWSxRM+4chHj3TVigmayzHXs5/ZL+5z/ImAtd
0j/CBGyoaak2vlwnBQpXG69ezAb1tZupD9la/R9Al7S7eonUXFdK5w==
-----END CERTIFICATE-----
