Certificate:
    Data:
        Version: 3 (0x2)
        Serial Number: 7 (0x7)
        Signature Algorithm: sha1WithRSAEncryption
        Issuer: C=IT, ST=Italy, L=Nuoro, O=ASL3, CN=ASL3 CA/emailAddress=gabriele.cansella@arionline.it
        Validity
            Not Before: Apr 17 09:27:52 2012 GMT
            Not After : Apr 15 09:27:52 2022 GMT
        Subject: C=IT, ST=Italy, L=Bologna, O=Noemalife, CN=Helpdesk Noemalife/emailAddress=helpdeskhda@noemalife.com
        Subject Public Key Info:
            Public Key Algorithm: rsaEncryption
            RSA Public Key: (2048 bit)
                Modulus (2048 bit):
                    00:df:6f:0b:5b:77:e8:3a:ce:6a:32:d7:90:24:d4:
                    26:c7:b7:fb:a2:e9:55:ce:28:de:ec:77:eb:69:1c:
                    0d:3a:01:7c:92:7e:02:84:4b:32:e8:2f:3e:8b:f5:
                    ac:bc:6d:9c:ff:39:c4:f7:32:91:58:60:6e:f4:2a:
                    3b:4c:eb:1e:df:49:70:e8:a4:cf:c0:10:a7:90:62:
                    25:71:3e:64:13:18:c1:e1:a3:23:53:73:5c:d8:ff:
                    50:c0:bf:c3:cf:3a:f3:7a:f9:7d:61:f3:c3:86:d4:
                    2b:e6:c2:cc:7d:a5:d3:1c:04:d3:5b:2a:01:da:d4:
                    07:32:b8:12:9c:30:72:4d:15:e1:11:01:4f:a4:2c:
                    c5:d1:ad:7d:91:c3:91:d5:a9:63:91:70:7c:b9:88:
                    22:d3:10:7d:27:26:f7:4d:ea:67:3d:46:48:d8:89:
                    9f:83:5e:f9:62:3f:07:81:4f:3f:c8:cc:c4:af:a3:
                    0a:2f:64:7a:ab:8d:f8:c9:f3:9c:bf:bb:3e:49:12:
                    23:b2:e6:cd:2f:da:82:a2:ea:d8:32:d0:08:5e:ce:
                    81:c4:a1:5b:2a:6b:64:58:b7:8c:69:9a:a9:d8:84:
                    0c:76:db:ec:92:5d:a9:54:a1:29:aa:0f:ef:3e:90:
                    d0:e5:3f:d9:9a:76:14:a5:d4:9e:94:30:6e:e7:e0:
                    c9:2d
                Exponent: 65537 (0x10001)
        X509v3 extensions:
            X509v3 Basic Constraints: 
                CA:FALSE
            Netscape Comment: 
                Easy-RSA Generated Certificate
            X509v3 Subject Key Identifier: 
                9A:E0:D1:35:4E:F1:96:18:34:4E:94:57:66:BB:66:F8:08:00:58:64
            X509v3 Authority Key Identifier: 
                keyid:02:A5:F0:1B:39:C4:CC:54:42:35:41:F9:B4:F5:DE:98:A4:D5:2A:3E
                DirName:/C=IT/ST=Italy/L=Nuoro/O=ASL3/CN=ASL3 CA/emailAddress=gabriele.cansella@arionline.it
                serial:AB:1D:A0:B2:A3:06:BF:FE

            X509v3 Extended Key Usage: 
                TLS Web Client Authentication
            X509v3 Key Usage: 
                Digital Signature
    Signature Algorithm: sha1WithRSAEncryption
        89:cf:2f:b3:7c:69:47:b5:a5:ed:09:0e:f7:92:b2:63:f7:54:
        ad:20:fa:4e:06:21:3e:d6:2a:63:db:b7:01:4b:df:79:52:47:
        e1:59:61:45:eb:a6:a6:0c:36:e0:c6:b9:e1:f1:6e:fd:fd:dd:
        cb:b6:45:d3:e3:b8:70:2e:da:24:e6:0f:7a:eb:48:e5:04:38:
        7e:4e:66:ee:13:de:04:83:bf:59:c7:62:6b:33:f2:b5:f8:d7:
        42:b7:ec:52:d1:d3:2a:2c:30:0d:ff:23:4a:0b:16:a0:dd:dc:
        40:ea:b8:55:e8:9b:d8:b8:b9:3e:a7:23:60:b1:8d:2b:07:94:
        88:c3:9e:85:d9:29:16:35:84:81:f5:0a:a2:a7:b8:5d:87:d7:
        fc:d8:86:4f:27:00:27:46:78:45:eb:11:fc:4a:93:9b:f2:52:
        7e:ad:6c:e9:89:b1:80:82:78:81:f8:85:9a:85:38:83:73:58:
        68:a1:bb:55:22:0f:5b:8e:77:d4:82:c5:01:47:ff:c3:c5:f4:
        2a:64:f5:2f:e8:97:56:62:d2:c3:10:ae:1a:90:48:5d:69:02:
        34:11:dc:9a:76:f4:0c:a4:71:e8:01:88:67:39:dc:98:13:d3:
        4c:63:30:74:01:bd:dd:48:46:df:91:f7:66:d3:a1:d0:ea:22:
        85:33:c3:9d
-----BEGIN CERTIFICATE-----
MIIEtzCCA5+gAwIBAgIBBzANBgkqhkiG9w0BAQUFADB9MQswCQYDVQQGEwJJVDEO
MAwGA1UECBMFSXRhbHkxDjAMBgNVBAcTBU51b3JvMQ0wCwYDVQQKEwRBU0wzMRAw
DgYDVQQDEwdBU0wzIENBMS0wKwYJKoZIhvcNAQkBFh5nYWJyaWVsZS5jYW5zZWxs
YUBhcmlvbmxpbmUuaXQwHhcNMTIwNDE3MDkyNzUyWhcNMjIwNDE1MDkyNzUyWjCB
ijELMAkGA1UEBhMCSVQxDjAMBgNVBAgTBUl0YWx5MRAwDgYDVQQHEwdCb2xvZ25h
MRIwEAYDVQQKEwlOb2VtYWxpZmUxGzAZBgNVBAMTEkhlbHBkZXNrIE5vZW1hbGlm
ZTEoMCYGCSqGSIb3DQEJARYZaGVscGRlc2toZGFAbm9lbWFsaWZlLmNvbTCCASIw
DQYJKoZIhvcNAQEBBQADggEPADCCAQoCggEBAN9vC1t36DrOajLXkCTUJse3+6Lp
Vc4o3ux362kcDToBfJJ+AoRLMugvPov1rLxtnP85xPcykVhgbvQqO0zrHt9JcOik
z8AQp5BiJXE+ZBMYweGjI1NzXNj/UMC/w88683r5fWHzw4bUK+bCzH2l0xwE01sq
AdrUBzK4Epwwck0V4REBT6QsxdGtfZHDkdWpY5FwfLmIItMQfScm903qZz1GSNiJ
n4Ne+WI/B4FPP8jMxK+jCi9kequN+MnznL+7PkkSI7LmzS/agqLq2DLQCF7OgcSh
WyprZFi3jGmaqdiEDHbb7JJdqVShKaoP7z6Q0OU/2Zp2FKXUnpQwbufgyS0CAwEA
AaOCATIwggEuMAkGA1UdEwQCMAAwLQYJYIZIAYb4QgENBCAWHkVhc3ktUlNBIEdl
bmVyYXRlZCBDZXJ0aWZpY2F0ZTAdBgNVHQ4EFgQUmuDRNU7xlhg0TpRXZrtm+AgA
WGQwgbAGA1UdIwSBqDCBpYAUAqXwGznEzFRCNUH5tPXemKTVKj6hgYGkfzB9MQsw
CQYDVQQGEwJJVDEOMAwGA1UECBMFSXRhbHkxDjAMBgNVBAcTBU51b3JvMQ0wCwYD
VQQKEwRBU0wzMRAwDgYDVQQDEwdBU0wzIENBMS0wKwYJKoZIhvcNAQkBFh5nYWJy
aWVsZS5jYW5zZWxsYUBhcmlvbmxpbmUuaXSCCQCrHaCyowa//jATBgNVHSUEDDAK
BggrBgEFBQcDAjALBgNVHQ8EBAMCB4AwDQYJKoZIhvcNAQEFBQADggEBAInPL7N8
aUe1pe0JDveSsmP3VK0g+k4GIT7WKmPbtwFL33lSR+FZYUXrpqYMNuDGueHxbv39
3cu2RdPjuHAu2iTmD3rrSOUEOH5OZu4T3gSDv1nHYmsz8rX410K37FLR0yosMA3/
I0oLFqDd3EDquFXom9i4uT6nI2CxjSsHlIjDnoXZKRY1hIH1CqKnuF2H1/zYhk8n
ACdGeEXrEfxKk5vyUn6tbOmJsYCCeIH4hZqFOINzWGihu1UiD1uOd9SCxQFH/8PF
9Cpk9S/ol1Zi0sMQrhqQSF1pAjQR3Jp29AykcegBiGc53JgT00xjMHQBvd1IRt+R
92bTodDqIoUzw50=
-----END CERTIFICATE-----
