Certificate:
    Data:
        Version: 3 (0x2)
        Serial Number: 233 (0xe9)
        Signature Algorithm: md5WithRSAEncryption
        Issuer: C=IT, ST=Fe, L=Ferrara, O=Azienda USL di Ferrara/emailAddress=postmaster@ausl.fe.it
        Validity
            Not Before: Nov 11 10:06:52 2011 GMT
            Not After : Dec 15 10:06:52 2012 GMT
        Subject: C=IT, ST=Fe, L=Ferrara, O=Azienda USL di Ferrara, OU=Office, CN=noemalife_03b/emailAddress=postmaster@ausl.fe.it
        Subject Public Key Info:
            Public Key Algorithm: rsaEncryption
                Public-Key: (2048 bit)
                Modulus:
                    00:d8:7c:ef:19:d8:f2:44:c4:12:17:b7:88:9d:3c:
                    a2:14:6f:ea:0c:2c:d1:db:02:29:c6:10:d7:15:20:
                    2f:b3:43:9e:a8:f1:fe:98:d8:94:75:0c:90:3d:cd:
                    69:75:d4:c0:56:4b:88:0a:e0:73:28:ad:93:50:42:
                    bb:7e:ce:ee:3f:e0:d6:e3:0a:39:40:8d:48:68:4e:
                    9e:0d:77:f0:b0:48:07:34:79:d3:e7:21:ef:30:57:
                    03:ff:9b:c0:70:99:e4:79:fa:39:15:25:15:7b:87:
                    b2:d7:53:9f:4c:8d:7c:6d:19:48:cf:fd:88:42:0a:
                    e9:01:17:e6:93:f0:2f:e2:3d:82:a9:14:14:f3:43:
                    c4:bc:1b:98:07:9e:5c:4b:10:22:2a:db:c6:78:b6:
                    47:c7:cd:34:3a:94:d2:7a:da:c2:6e:ec:48:b2:df:
                    0a:06:37:f2:7d:10:52:f1:b3:b6:a7:b8:26:12:7c:
                    43:eb:13:04:2e:ec:09:d9:3e:d4:98:d1:aa:6a:03:
                    30:78:a0:29:0f:6f:41:5c:68:15:d7:04:c3:9d:5f:
                    a3:35:83:d1:80:56:15:79:5b:09:24:8b:72:a2:78:
                    d0:93:c6:bb:b5:52:a8:4f:e3:13:db:23:e0:19:8b:
                    bc:81:7c:64:3d:f7:ca:cf:3e:b2:23:e4:94:7d:da:
                    18:57
                Exponent: 65537 (0x10001)
        X509v3 extensions:
            X509v3 Basic Constraints: 
                CA:FALSE
            Netscape Comment: 
                OpenSSL Generated Certificate
            X509v3 Subject Key Identifier: 
                72:C2:BB:99:B4:F2:22:AF:C2:C5:B5:9A:C5:37:2F:3A:50:6C:2C:98
            X509v3 Authority Key Identifier: 
                keyid:BA:FB:C6:D6:2A:9F:33:51:41:32:4B:E0:40:DA:FD:76:99:67:40:3F
                DirName:/C=IT/ST=Fe/L=Ferrara/O=Azienda USL di Ferrara/emailAddress=postmaster@ausl.fe.it
                serial:89:39:CD:2D:45:C8:AC:C4

    Signature Algorithm: md5WithRSAEncryption
        21:b6:07:33:8d:55:59:71:f6:aa:26:bf:1e:62:96:21:78:99:
        25:3e:34:9e:45:09:fa:05:92:0d:02:d9:e0:cf:ee:19:71:6c:
        07:b5:f0:d7:7d:79:83:f8:14:11:93:0e:74:e1:90:b6:59:8e:
        ec:0e:37:71:e6:be:2d:48:de:41:49:f4:0c:e0:6d:6f:1b:eb:
        ca:68:f3:ea:d5:e6:ff:4f:41:2e:38:8d:58:b9:1c:c1:c9:31:
        b2:e1:b1:7d:4a:21:1b:29:1a:c0:a0:1a:9d:9e:28:69:ab:b9:
        a7:02:ae:5c:ef:f6:db:03:de:3c:73:0f:dd:b7:87:11:91:59:
        26:ba:59:e4:92:20:6d:42:f0:35:3f:ee:e0:e1:37:d0:57:b7:
        60:c8:ca:84:98:15:0e:9c:33:d3:d8:7f:2b:f1:78:28:45:a9:
        b0:18:8d:e6:cd:08:95:c6:b2:f7:c1:77:03:30:98:14:c5:7b:
        5d:0c:6a:09:79:1b:d4:91:17:01:e9:88:ee:58:59:82:e8:a6:
        26:9b:e8:6a:41:fe:d5:75:ac:83:22:98:3d:5d:b1:5d:89:f6:
        7d:be:f7:bb:4b:d4:52:44:3c:26:81:12:be:9f:58:23:4d:e9:
        4e:5e:8b:63:be:71:af:66:f8:70:62:47:61:09:cf:e7:51:05:
        d0:4b:dd:ec
-----BEGIN CERTIFICATE-----
MIIEkjCCA3qgAwIBAgICAOkwDQYJKoZIhvcNAQEEBQAwczELMAkGA1UEBhMCSVQx
CzAJBgNVBAgTAkZlMRAwDgYDVQQHEwdGZXJyYXJhMR8wHQYDVQQKExZBemllbmRh
IFVTTCBkaSBGZXJyYXJhMSQwIgYJKoZIhvcNAQkBFhVwb3N0bWFzdGVyQGF1c2wu
ZmUuaXQwHhcNMTExMTExMTAwNjUyWhcNMTIxMjE1MTAwNjUyWjCBnDELMAkGA1UE
BhMCSVQxCzAJBgNVBAgTAkZlMRAwDgYDVQQHEwdGZXJyYXJhMR8wHQYDVQQKExZB
emllbmRhIFVTTCBkaSBGZXJyYXJhMQ8wDQYDVQQLEwZPZmZpY2UxFjAUBgNVBAMU
DW5vZW1hbGlmZV8wM2IxJDAiBgkqhkiG9w0BCQEWFXBvc3RtYXN0ZXJAYXVzbC5m
ZS5pdDCCASIwDQYJKoZIhvcNAQEBBQADggEPADCCAQoCggEBANh87xnY8kTEEhe3
iJ08ohRv6gws0dsCKcYQ1xUgL7NDnqjx/pjYlHUMkD3NaXXUwFZLiArgcyitk1BC
u37O7j/g1uMKOUCNSGhOng138LBIBzR50+ch7zBXA/+bwHCZ5Hn6ORUlFXuHstdT
n0yNfG0ZSM/9iEIK6QEX5pPwL+I9gqkUFPNDxLwbmAeeXEsQIirbxni2R8fNNDqU
0nrawm7sSLLfCgY38n0QUvGztqe4JhJ8Q+sTBC7sCdk+1JjRqmoDMHigKQ9vQVxo
FdcEw51fozWD0YBWFXlbCSSLcqJ40JPGu7VSqE/jE9sj4BmLvIF8ZD33ys8+siPk
lH3aGFcCAwEAAaOCAQQwggEAMAkGA1UdEwQCMAAwLAYJYIZIAYb4QgENBB8WHU9w
ZW5TU0wgR2VuZXJhdGVkIENlcnRpZmljYXRlMB0GA1UdDgQWBBRywruZtPIir8LF
tZrFNy86UGwsmDCBpQYDVR0jBIGdMIGagBS6+8bWKp8zUUEyS+BA2v12mWdAP6F3
pHUwczELMAkGA1UEBhMCSVQxCzAJBgNVBAgTAkZlMRAwDgYDVQQHEwdGZXJyYXJh
MR8wHQYDVQQKExZBemllbmRhIFVTTCBkaSBGZXJyYXJhMSQwIgYJKoZIhvcNAQkB
FhVwb3N0bWFzdGVyQGF1c2wuZmUuaXSCCQCJOc0tRcisxDANBgkqhkiG9w0BAQQF
AAOCAQEAIbYHM41VWXH2qia/HmKWIXiZJT40nkUJ+gWSDQLZ4M/uGXFsB7Xw1315
g/gUEZMOdOGQtlmO7A43cea+LUjeQUn0DOBtbxvrymjz6tXm/09BLjiNWLkcwckx
suGxfUohGykawKAanZ4oaau5pwKuXO/22wPePHMP3beHEZFZJrpZ5JIgbULwNT/u
4OE30Fe3YMjKhJgVDpwz09h/K/F4KEWpsBiN5s0Ilcay98F3AzCYFMV7XQxqCXkb
1JEXAemI7lhZguimJpvoakH+1XWsgyKYPV2xXYn2fb73u0vUUkQ8JoESvp9YI03p
Tl6LY75xr2b4cGJHYQnP51EF0Evd7A==
-----END CERTIFICATE-----
