Certificate:
    Data:
        Version: 3 (0x2)
        Serial Number: 503 (0x1f7)
        Signature Algorithm: md5WithRSAEncryption
        Issuer: C=IT, ST=Fe, L=Ferrara, O=Azienda USL di Ferrara/emailAddress=postmaster@ausl.fe.it
        Validity
            Not Before: Nov 19 13:12:36 2012 GMT
            Not After : Dec 24 13:12:36 2013 GMT
        Subject: C=IT, ST=Fe, L=Ferrara, O=Azienda USL di Ferrara, OU=Office, CN=noemalife_01c/emailAddress=postmaster@ausl.fe.it
        Subject Public Key Info:
            Public Key Algorithm: rsaEncryption
                Public-Key: (2048 bit)
                Modulus:
                    00:ab:df:74:98:34:93:60:b0:31:29:b9:00:5e:56:
                    90:ce:6f:d4:b8:0f:df:c3:33:ad:6c:1c:30:77:ea:
                    d4:c7:3c:61:97:d6:49:54:d5:1d:d0:13:bd:4e:ac:
                    fc:05:1c:4c:6d:32:64:7b:23:59:b2:2a:2e:d3:67:
                    73:9d:45:2a:ce:f4:6e:52:0a:01:6e:03:6f:b2:8e:
                    f7:cd:f3:a6:3d:60:0d:82:00:45:7c:b4:6b:f5:54:
                    a4:82:03:7b:79:c1:aa:16:f4:35:26:96:1f:86:4f:
                    63:ad:ac:9e:d6:86:40:f5:87:d6:a4:71:60:d6:a7:
                    cb:7d:74:e4:5f:c0:17:e2:48:64:6b:2c:aa:45:56:
                    c0:7d:7b:26:6a:71:47:5c:fd:88:61:24:28:52:94:
                    51:b1:c5:46:39:52:bd:5a:9a:75:66:9e:0c:26:bd:
                    6b:67:34:d3:c1:8b:f9:53:76:b8:11:54:3d:c1:71:
                    4d:11:83:dd:79:3b:d8:f8:a3:1b:9e:78:a3:b4:35:
                    20:52:00:d9:18:1b:eb:b9:b4:d9:9c:73:79:70:3f:
                    73:41:9b:94:59:c1:f7:48:af:7e:5a:3c:de:b6:e6:
                    41:65:0b:bf:f9:c0:62:ad:51:6a:aa:08:5e:45:ce:
                    57:b6:14:75:c7:67:b1:6d:bf:4b:54:d2:21:18:15:
                    4b:b7
                Exponent: 65537 (0x10001)
        X509v3 extensions:
            X509v3 Basic Constraints: 
                CA:FALSE
            Netscape Comment: 
                OpenSSL Generated Certificate
            X509v3 Subject Key Identifier: 
                B0:DC:A0:EC:6C:0A:94:3C:65:6B:20:16:6B:B6:56:9F:0C:0E:6C:8F
            X509v3 Authority Key Identifier: 
                keyid:BA:FB:C6:D6:2A:9F:33:51:41:32:4B:E0:40:DA:FD:76:99:67:40:3F
                DirName:/C=IT/ST=Fe/L=Ferrara/O=Azienda USL di Ferrara/emailAddress=postmaster@ausl.fe.it
                serial:89:39:CD:2D:45:C8:AC:C4

    Signature Algorithm: md5WithRSAEncryption
        44:d0:49:be:18:0c:1b:87:09:1a:f5:17:9c:51:a4:22:a8:1d:
        8c:2b:73:3b:4a:5a:e5:f2:4a:cf:39:b5:48:64:c2:93:17:37:
        f9:e4:52:b9:9d:07:e7:08:81:20:77:4c:5c:0c:cd:d3:49:14:
        95:ce:34:c4:cf:ac:d1:bd:29:1f:33:e9:49:b0:35:da:ef:ae:
        4a:9f:88:80:ec:23:6c:b0:53:13:59:a8:d1:a3:27:f5:1a:58:
        6f:1d:38:50:a0:f8:9b:67:bd:63:28:f0:34:a3:0e:ff:27:00:
        41:d3:54:a8:ee:22:95:a0:0c:09:03:93:53:e5:e7:f7:ec:bd:
        58:8e:68:7e:8b:1c:e7:17:90:e9:7e:3f:8f:7c:26:01:f9:48:
        c5:43:57:66:58:6f:7f:b2:a5:a9:8b:1c:ab:08:8d:35:55:1b:
        55:3c:08:dd:0a:6c:80:17:7d:92:f9:6d:1a:ec:aa:16:b8:3e:
        81:b7:e9:01:48:71:c7:3b:29:05:21:b9:67:16:ae:5d:93:3c:
        a3:6d:a5:83:a1:41:c4:25:24:ca:d1:a4:0c:16:b3:9f:3b:83:
        5a:62:74:9d:31:1c:db:dd:39:6b:2c:f4:0f:16:3f:e0:c9:9f:
        c8:89:5c:9b:6b:bb:62:8c:df:6e:5b:ad:6b:0c:28:c7:aa:a8:
        52:8d:fa:06
-----BEGIN CERTIFICATE-----
MIIEkjCCA3qgAwIBAgICAfcwDQYJKoZIhvcNAQEEBQAwczELMAkGA1UEBhMCSVQx
CzAJBgNVBAgTAkZlMRAwDgYDVQQHEwdGZXJyYXJhMR8wHQYDVQQKExZBemllbmRh
IFVTTCBkaSBGZXJyYXJhMSQwIgYJKoZIhvcNAQkBFhVwb3N0bWFzdGVyQGF1c2wu
ZmUuaXQwHhcNMTIxMTE5MTMxMjM2WhcNMTMxMjI0MTMxMjM2WjCBnDELMAkGA1UE
BhMCSVQxCzAJBgNVBAgTAkZlMRAwDgYDVQQHEwdGZXJyYXJhMR8wHQYDVQQKExZB
emllbmRhIFVTTCBkaSBGZXJyYXJhMQ8wDQYDVQQLEwZPZmZpY2UxFjAUBgNVBAMU
DW5vZW1hbGlmZV8wMWMxJDAiBgkqhkiG9w0BCQEWFXBvc3RtYXN0ZXJAYXVzbC5m
ZS5pdDCCASIwDQYJKoZIhvcNAQEBBQADggEPADCCAQoCggEBAKvfdJg0k2CwMSm5
AF5WkM5v1LgP38MzrWwcMHfq1Mc8YZfWSVTVHdATvU6s/AUcTG0yZHsjWbIqLtNn
c51FKs70blIKAW4Db7KO983zpj1gDYIARXy0a/VUpIIDe3nBqhb0NSaWH4ZPY62s
ntaGQPWH1qRxYNany3105F/AF+JIZGssqkVWwH17JmpxR1z9iGEkKFKUUbHFRjlS
vVqadWaeDCa9a2c008GL+VN2uBFUPcFxTRGD3Xk72PijG554o7Q1IFIA2Rgb67m0
2ZxzeXA/c0GblFnB90ivflo83rbmQWULv/nAYq1RaqoIXkXOV7YUdcdnsW2/S1TS
IRgVS7cCAwEAAaOCAQQwggEAMAkGA1UdEwQCMAAwLAYJYIZIAYb4QgENBB8WHU9w
ZW5TU0wgR2VuZXJhdGVkIENlcnRpZmljYXRlMB0GA1UdDgQWBBSw3KDsbAqUPGVr
IBZrtlafDA5sjzCBpQYDVR0jBIGdMIGagBS6+8bWKp8zUUEyS+BA2v12mWdAP6F3
pHUwczELMAkGA1UEBhMCSVQxCzAJBgNVBAgTAkZlMRAwDgYDVQQHEwdGZXJyYXJh
MR8wHQYDVQQKExZBemllbmRhIFVTTCBkaSBGZXJyYXJhMSQwIgYJKoZIhvcNAQkB
FhVwb3N0bWFzdGVyQGF1c2wuZmUuaXSCCQCJOc0tRcisxDANBgkqhkiG9w0BAQQF
AAOCAQEARNBJvhgMG4cJGvUXnFGkIqgdjCtzO0pa5fJKzzm1SGTCkxc3+eRSuZ0H
5wiBIHdMXAzN00kUlc40xM+s0b0pHzPpSbA12u+uSp+IgOwjbLBTE1mo0aMn9RpY
bx04UKD4m2e9YyjwNKMO/ycAQdNUqO4ilaAMCQOTU+Xn9+y9WI5ofosc5xeQ6X4/
j3wmAflIxUNXZlhvf7KlqYscqwiNNVUbVTwI3QpsgBd9kvltGuyqFrg+gbfpAUhx
xzspBSG5ZxauXZM8o22lg6FBxCUkytGkDBaznzuDWmJ0nTEc2905ayz0DxY/4Mmf
yIlcm2u7Yozfblutawwox6qoUo36Bg==
-----END CERTIFICATE-----
