Certificate:
    Data:
        Version: 3 (0x2)
        Serial Number: 2097171 (0x200013)
        Signature Algorithm: md5WithRSAEncryption
        Issuer: O=Ospedali Riuniti Marche Nord, OU=./emailAddress=security@clearos.lan, L=., ST=., C=IT, CN=ca.clearos.lan
        Validity
            Not Before: Dec  7 14:17:25 2012 GMT
            Not After : Dec  5 14:17:25 2022 GMT
        Subject: C=IT, ST=PU, O=Ospedali Riuniti Marche Nord, OU=SOC Informatica +39.0721.366328, L=Pesaro, CN=dia/emailAddress=dia@clearos.lan
        Subject Public Key Info:
            Public Key Algorithm: rsaEncryption
            RSA Public Key: (2048 bit)
                Modulus (2048 bit):
                    00:b9:4a:7d:5e:fe:cc:d0:87:3a:a6:a9:69:22:05:
                    89:db:9f:d2:58:c3:ac:9d:dd:ea:f1:7e:cb:bd:76:
                    37:1c:0d:ea:db:7a:73:e9:11:51:d6:20:df:81:70:
                    2d:eb:39:00:cc:bf:2c:3d:f5:4d:a5:1e:7c:f2:a5:
                    13:63:4a:1a:29:91:97:73:73:dc:04:14:f2:99:4d:
                    b5:35:33:5d:54:2c:7b:71:ed:48:c9:fc:16:f9:3d:
                    93:5f:20:cf:12:1e:33:de:12:e1:04:e4:0b:c3:55:
                    25:91:b4:38:e6:02:80:34:53:f5:d5:54:ea:44:60:
                    43:4b:8d:27:98:9a:09:e6:6f:54:0f:13:eb:4f:4d:
                    be:ec:a4:d2:fb:70:26:93:a5:fb:d5:91:ff:81:25:
                    4e:34:70:c7:5e:2a:0c:e3:50:69:a0:cf:dc:93:8e:
                    1c:d7:ce:a5:31:a7:0f:af:d9:da:79:e5:fe:89:2b:
                    df:24:29:2d:d6:3a:27:a6:93:0c:71:23:dd:95:f8:
                    ad:c6:cd:a1:4a:14:8c:55:2d:8a:99:12:2a:34:06:
                    3d:6a:2e:4a:de:7c:f2:7f:ef:e6:c3:16:da:3f:08:
                    f4:f1:4f:8a:e4:f2:bb:07:41:7e:0a:47:6d:4b:f7:
                    fd:6a:72:9e:77:ab:c8:ca:31:e1:06:25:7e:83:3d:
                    76:95
                Exponent: 65537 (0x10001)
        X509v3 extensions:
            X509v3 Basic Constraints: 
                CA:FALSE
            X509v3 Subject Key Identifier: 
                CF:C2:04:EC:9A:B2:7E:0D:46:FA:60:8C:90:6F:EF:CE:90:44:54:CC
            Netscape Cert Type: 
                SSL Client, S/MIME, Object Signing
    Signature Algorithm: md5WithRSAEncryption
        0e:78:4e:75:3a:25:38:bc:e1:75:6c:70:a5:b7:07:c4:b8:73:
        7a:86:93:b1:b7:a0:aa:e2:7a:47:46:10:2c:81:cc:59:1f:ad:
        84:93:4f:81:b3:7f:e2:9c:27:7b:39:4a:f6:44:f9:b0:5e:04:
        72:22:c7:8d:2a:33:20:bb:6d:b2:3c:d6:8c:7d:3d:39:41:f2:
        3a:df:30:5a:eb:2f:69:6f:cc:9c:1b:27:48:f5:0e:3b:cd:7c:
        a1:d8:24:59:34:f1:6b:15:c9:e5:01:83:1b:de:b1:49:03:fa:
        13:f4:b0:b5:3a:43:5f:c6:a7:92:df:9d:7f:e8:8c:04:81:78:
        a6:cf:9d:f9:78:a8:34:d5:f1:ed:e5:c9:16:46:07:f6:78:a4:
        ad:cc:6e:26:fd:ed:eb:e2:95:fb:d3:26:d8:80:98:84:1d:a7:
        be:ed:8d:ce:f9:a1:05:25:34:88:7a:f2:74:bb:ec:1d:9b:5a:
        16:ad:91:a2:50:a8:13:14:8c:91:a6:f8:ad:14:4f:a7:5c:8d:
        35:b5:e6:20:4c:97:c8:1b:db:a1:53:52:a8:bc:9b:aa:bf:d8:
        5d:ed:ab:a3:7c:56:45:ef:33:c9:33:a4:33:f3:71:71:c4:dd:
        ee:42:93:5c:a1:26:67:95:2b:6c:ed:32:d2:06:e5:a7:3b:31:
        2f:15:b4:30
-----BEGIN CERTIFICATE-----
MIID/jCCAuagAwIBAgIDIAATMA0GCSqGSIb3DQEBBAUAMIGWMSUwIwYDVQQKExxP
c3BlZGFsaSBSaXVuaXRpIE1hcmNoZSBOb3JkMQowCAYDVQQLEwEuMSMwIQYJKoZI
hvcNAQkBFhRzZWN1cml0eUBjbGVhcm9zLmxhbjEKMAgGA1UEBxMBLjEKMAgGA1UE
CBMBLjELMAkGA1UEBhMCSVQxFzAVBgNVBAMTDmNhLmNsZWFyb3MubGFuMB4XDTEy
MTIwNzE0MTcyNVoXDTIyMTIwNTE0MTcyNVowgaoxCzAJBgNVBAYTAklUMQswCQYD
VQQIEwJQVTElMCMGA1UEChMcT3NwZWRhbGkgUml1bml0aSBNYXJjaGUgTm9yZDEo
MCYGA1UECxMfU09DIEluZm9ybWF0aWNhICszOS4wNzIxLjM2NjMyODEPMA0GA1UE
BxMGUGVzYXJvMQwwCgYDVQQDEwNkaWExHjAcBgkqhkiG9w0BCQEWD2RpYUBjbGVh
cm9zLmxhbjCCASIwDQYJKoZIhvcNAQEBBQADggEPADCCAQoCggEBALlKfV7+zNCH
OqapaSIFiduf0ljDrJ3d6vF+y712NxwN6tt6c+kRUdYg34FwLes5AMy/LD31TaUe
fPKlE2NKGimRl3Nz3AQU8plNtTUzXVQse3HtSMn8Fvk9k18gzxIeM94S4QTkC8NV
JZG0OOYCgDRT9dVU6kRgQ0uNJ5iaCeZvVA8T609Nvuyk0vtwJpOl+9WR/4ElTjRw
x14qDONQaaDP3JOOHNfOpTGnD6/Z2nnl/okr3yQpLdY6J6aTDHEj3ZX4rcbNoUoU
jFUtipkSKjQGPWouSt588n/v5sMW2j8I9PFPiuTyuwdBfgpHbUv3/WpynneryMox
4QYlfoM9dpUCAwEAAaM/MD0wCQYDVR0TBAIwADAdBgNVHQ4EFgQUz8IE7Jqyfg1G
+mCMkG/vzpBEVMwwEQYJYIZIAYb4QgEBBAQDAgSwMA0GCSqGSIb3DQEBBAUAA4IB
AQAOeE51OiU4vOF1bHCltwfEuHN6hpOxt6Cq4npHRhAsgcxZH62Ek0+Bs3/inCd7
OUr2RPmwXgRyIseNKjMgu22yPNaMfT05QfI63zBa6y9pb8ycGydI9Q47zXyh2CRZ
NPFrFcnlAYMb3rFJA/oT9LC1OkNfxqeS351/6IwEgXimz535eKg01fHt5ckWRgf2
eKStzG4m/e3r4pX70ybYgJiEHae+7Y3O+aEFJTSIevJ0u+wdm1oWrZGiUKgTFIyR
pvitFE+nXI01teYgTJfIG9uhU1KovJuqv9hd7aujfFZF7zPJM6Qz83FxxN3uQpNc
oSZnlSts7TLSBuWnOzEvFbQw
-----END CERTIFICATE-----
