Certificate:
    Data:
        Version: 3 (0x2)
        Serial Number: 702 (0x2be)
        Signature Algorithm: md5WithRSAEncryption
        Issuer: C=IT, ST=PR, L=Parma, O=Ausl Parma/emailAddress=tecnico@studiostorti.com
        Validity
            Not Before: Apr 19 10:10:02 2012 GMT
            Not After : Apr 29 10:10:02 2013 GMT
        Subject: C=IT, ST=PR, L=Parma, O=Ausl Parma, OU=Serv RIT, CN=noem1_bbaraldi_6_b/emailAddress=bbaraldi@noemalife.com
        Subject Public Key Info:
            Public Key Algorithm: rsaEncryption
            RSA Public Key: (2048 bit)
                Modulus (2048 bit):
                    00:bd:bf:c8:2e:8d:a6:a2:0a:6a:ed:8c:0d:36:90:
                    97:0a:9d:80:1d:98:89:32:41:eb:8a:13:45:db:7e:
                    c5:c7:b0:cd:2f:8f:c4:0d:72:7e:2e:88:ec:81:ee:
                    d3:e9:b2:7a:0a:b1:ce:53:9f:47:64:f3:aa:73:16:
                    49:a7:44:90:f0:23:c5:8c:23:b1:d6:6e:ad:0c:58:
                    f8:50:38:fe:d1:39:9f:f8:ee:e6:b0:01:2c:18:ba:
                    1a:50:45:a2:0b:38:f4:34:c9:85:95:06:64:b0:b4:
                    e4:92:8e:fe:05:71:eb:19:17:6b:ce:b9:25:9b:a0:
                    81:00:19:91:71:a8:6d:46:8a:e4:bc:97:79:19:a3:
                    94:c4:95:54:60:79:27:4a:f2:fd:68:e8:93:e2:f2:
                    77:ac:3d:7b:06:a1:4d:ce:4e:89:3a:13:30:f9:7b:
                    ee:76:20:9a:f9:06:b1:2b:5c:bd:e1:77:b6:45:e3:
                    1c:02:ae:3b:e5:13:19:da:2b:dd:8b:9c:5e:d7:cb:
                    05:e5:65:36:c9:66:80:6a:03:70:1b:b3:02:23:6d:
                    04:28:b0:f3:99:87:56:e0:e6:60:10:1e:79:62:ab:
                    39:65:a3:43:44:7e:24:90:29:b5:47:50:74:ab:de:
                    82:20:f8:4b:81:74:f3:f9:e0:22:e7:0d:65:3d:82:
                    da:8f
                Exponent: 65537 (0x10001)
        X509v3 extensions:
            X509v3 Basic Constraints: 
                CA:FALSE
            Netscape Comment: 
                OpenSSL Generated Certificate
            X509v3 Subject Key Identifier: 
                6D:B4:5A:4F:FD:3B:51:98:C6:0A:AF:43:05:FC:8E:B9:A9:80:2D:2D
            X509v3 Authority Key Identifier: 
                keyid:A0:A3:30:83:8D:44:08:3B:30:98:59:19:A1:14:84:5C:7C:F3:6D:52
                DirName:/C=IT/ST=PR/L=Parma/O=Ausl Parma/emailAddress=tecnico@studiostorti.com
                serial:EF:B7:19:D2:1E:07:10:68

    Signature Algorithm: md5WithRSAEncryption
        31:60:06:b5:39:56:d8:4a:69:ac:92:2b:aa:61:d4:c1:89:6d:
        44:0e:de:24:d7:df:4b:81:15:e0:b5:6e:ae:b2:14:81:d7:53:
        da:46:bd:f6:15:c8:68:ad:61:05:be:4e:1a:b8:75:98:84:51:
        d1:fd:6a:8d:20:14:e5:12:7d:32:8e:e2:51:14:98:68:04:9d:
        75:14:44:85:e4:6a:a9:c7:33:12:46:a8:3e:74:03:50:ea:f0:
        5f:fe:d8:5c:ba:6a:46:6a:b1:88:99:9e:ed:75:b1:06:6f:81:
        8b:de:86:72:1f:c5:83:c4:b9:f8:f7:68:a1:cf:33:f1:40:10:
        8b:91:45:05:fd:c9:5f:f7:20:7a:54:b5:df:7d:a6:bf:b3:35:
        b8:e7:9b:d6:fa:74:7e:a3:e5:b6:a1:79:bd:ad:df:ec:bb:c5:
        e1:58:6b:ac:37:b5:00:92:31:fd:90:46:fa:a5:be:e2:2f:d4:
        47:a8:3f:e2:73:d1:fb:b9:d2:b1:45:42:0d:08:b7:2e:df:48:
        75:44:09:ef:40:23:0a:96:11:25:ff:0e:ee:c9:4b:37:84:f9:
        e9:fd:e4:ce:b7:28:32:82:77:f0:e2:33:ce:66:c8:17:72:d6:
        ca:05:31:81:4c:39:22:b4:73:e3:28:c9:9d:0d:98:7d:89:33:
        ae:90:7f:8a
-----BEGIN CERTIFICATE-----
MIIEdDCCA1ygAwIBAgICAr4wDQYJKoZIhvcNAQEEBQAwaDELMAkGA1UEBhMCSVQx
CzAJBgNVBAgTAlBSMQ4wDAYDVQQHEwVQYXJtYTETMBEGA1UEChMKQXVzbCBQYXJt
YTEnMCUGCSqGSIb3DQEJARYYdGVjbmljb0BzdHVkaW9zdG9ydGkuY29tMB4XDTEy
MDQxOTEwMTAwMloXDTEzMDQyOTEwMTAwMlowgZYxCzAJBgNVBAYTAklUMQswCQYD
VQQIEwJQUjEOMAwGA1UEBxMFUGFybWExEzARBgNVBAoTCkF1c2wgUGFybWExETAP
BgNVBAsTCFNlcnYgUklUMRswGQYDVQQDFBJub2VtMV9iYmFyYWxkaV82X2IxJTAj
BgkqhkiG9w0BCQEWFmJiYXJhbGRpQG5vZW1hbGlmZS5jb20wggEiMA0GCSqGSIb3
DQEBAQUAA4IBDwAwggEKAoIBAQC9v8gujaaiCmrtjA02kJcKnYAdmIkyQeuKE0Xb
fsXHsM0vj8QNcn4uiOyB7tPpsnoKsc5Tn0dk86pzFkmnRJDwI8WMI7HWbq0MWPhQ
OP7ROZ/47uawASwYuhpQRaILOPQ0yYWVBmSwtOSSjv4FcesZF2vOuSWboIEAGZFx
qG1GiuS8l3kZo5TElVRgeSdK8v1o6JPi8nesPXsGoU3OTok6EzD5e+52IJr5BrEr
XL3hd7ZF4xwCrjvlExnaK92LnF7XywXlZTbJZoBqA3AbswIjbQQosPOZh1bg5mAQ
Hnliqzllo0NEfiSQKbVHUHSr3oIg+EuBdPP54CLnDWU9gtqPAgMBAAGjgfgwgfUw
CQYDVR0TBAIwADAsBglghkgBhvhCAQ0EHxYdT3BlblNTTCBHZW5lcmF0ZWQgQ2Vy
dGlmaWNhdGUwHQYDVR0OBBYEFG20Wk/9O1GYxgqvQwX8jrmpgC0tMIGaBgNVHSME
gZIwgY+AFKCjMIONRAg7MJhZGaEUhFx8821SoWykajBoMQswCQYDVQQGEwJJVDEL
MAkGA1UECBMCUFIxDjAMBgNVBAcTBVBhcm1hMRMwEQYDVQQKEwpBdXNsIFBhcm1h
MScwJQYJKoZIhvcNAQkBFhh0ZWNuaWNvQHN0dWRpb3N0b3J0aS5jb22CCQDvtxnS
HgcQaDANBgkqhkiG9w0BAQQFAAOCAQEAMWAGtTlW2EpprJIrqmHUwYltRA7eJNff
S4EV4LVurrIUgddT2ka99hXIaK1hBb5OGrh1mIRR0f1qjSAU5RJ9Mo7iURSYaASd
dRREheRqqcczEkaoPnQDUOrwX/7YXLpqRmqxiJme7XWxBm+Bi96Gch/Fg8S5+Pdo
oc8z8UAQi5FFBf3JX/cgelS1332mv7M1uOeb1vp0fqPltqF5va3f7LvF4VhrrDe1
AJIx/ZBG+qW+4i/UR6g/4nPR+7nSsUVCDQi3Lt9IdUQJ70AjCpYRJf8O7slLN4T5
6f3kzrcoMoJ38OIzzmbIF3LWygUxgUw5IrRz4yjJnQ2YfYkzrpB/ig==
-----END CERTIFICATE-----
