Certificate:
    Data:
        Version: 3 (0x2)
        Serial Number: 62 (0x3e)
        Signature Algorithm: md5WithRSAEncryption
        Issuer: C=IT, ST=TO, L=BANCHETTE, O=CIC, OU=sys, CN=wallofswords/emailAddress=tecnologie@cic.ivrea.it
        Validity
            Not Before: Aug  2 08:25:46 2007 GMT
            Not After : Jul 30 08:25:46 2017 GMT
        Subject: C=IT, ST=TO, O=CIC, CN=dianoema/emailAddress=tecnologie@cic.ivrea.it
        Subject Public Key Info:
            Public Key Algorithm: rsaEncryption
            RSA Public Key: (1024 bit)
                Modulus (1024 bit):
                    00:cd:8b:f5:ac:f5:67:7e:fe:00:7b:29:7f:35:d2:
                    76:2a:ed:9f:a2:f5:ab:18:88:56:47:cb:e9:ba:97:
                    59:dd:e6:dd:4e:bc:a9:94:f0:d8:7d:9a:6a:2e:35:
                    63:ee:40:0e:33:5e:81:fb:1b:e3:c3:18:ac:08:a7:
                    61:e9:e7:11:84:b8:95:6d:27:7c:0f:e9:87:5a:da:
                    10:28:5b:18:3d:f4:5f:95:1c:d1:16:fa:b7:21:a5:
                    45:9c:a0:47:5e:49:21:6e:ad:99:c1:70:43:ee:74:
                    82:d4:94:ee:d1:53:62:ef:6e:77:d9:7c:66:f1:87:
                    18:64:14:85:32:d9:80:70:35
                Exponent: 65537 (0x10001)
        X509v3 extensions:
            X509v3 Basic Constraints: 
            CA:FALSE
            Netscape Comment: 
            OpenSSL Generated Certificate
            X509v3 Subject Key Identifier: 
            26:8F:AD:FD:22:CE:11:81:9B:97:9E:A6:15:24:02:E4:BB:75:5A:3E
            X509v3 Authority Key Identifier: 
            keyid:8D:1D:6D:E0:8F:AC:34:1A:7C:9F:DF:E0:1D:DB:CF:E9:42:AA:00:7E
            DirName:/C=IT/ST=TO/L=BANCHETTE/O=CIC/OU=sys/CN=wallofswords/emailAddress=tecnologie@cic.ivrea.it
            serial:00

    Signature Algorithm: md5WithRSAEncryption
        3f:f2:02:fa:14:24:5c:73:17:43:2f:cf:e0:43:c6:07:b6:53:
        9c:60:98:6a:3f:51:89:a1:a8:6c:54:a8:fe:d3:0e:8c:34:89:
        9d:4f:45:b9:92:c0:c8:b8:81:0d:2f:1d:5b:69:ec:b6:7a:4a:
        40:6e:28:65:cd:13:e9:40:d9:bc:2d:2b:37:aa:99:03:6d:37:
        c3:d0:48:75:ac:6d:e0:a7:b1:36:fc:b2:61:d8:c4:14:3a:e5:
        e8:5b:da:9a:0c:75:15:14:d2:7d:fb:1a:c7:b6:ae:f0:b7:3c:
        32:90:2a:33:8f:ce:3b:1a:b6:90:8e:24:b1:17:e8:53:77:87:
        bf:6e
-----BEGIN CERTIFICATE-----
MIIDejCCAuOgAwIBAgIBPjANBgkqhkiG9w0BAQQFADCBiTELMAkGA1UEBhMCSVQx
CzAJBgNVBAgTAlRPMRIwEAYDVQQHEwlCQU5DSEVUVEUxDDAKBgNVBAoTA0NJQzEM
MAoGA1UECxMDc3lzMRUwEwYDVQQDEwx3YWxsb2Zzd29yZHMxJjAkBgkqhkiG9w0B
CQEWF3RlY25vbG9naWVAY2ljLml2cmVhLml0MB4XDTA3MDgwMjA4MjU0NloXDTE3
MDczMDA4MjU0NlowYzELMAkGA1UEBhMCSVQxCzAJBgNVBAgTAlRPMQwwCgYDVQQK
EwNDSUMxETAPBgNVBAMTCGRpYW5vZW1hMSYwJAYJKoZIhvcNAQkBFhd0ZWNub2xv
Z2llQGNpYy5pdnJlYS5pdDCBnzANBgkqhkiG9w0BAQEFAAOBjQAwgYkCgYEAzYv1
rPVnfv4Aeyl/NdJ2Ku2fovWrGIhWR8vpupdZ3ebdTryplPDYfZpqLjVj7kAOM16B
+xvjwxisCKdh6ecRhLiVbSd8D+mHWtoQKFsYPfRflRzRFvq3IaVFnKBHXkkhbq2Z
wXBD7nSC1JTu0VNi72532Xxm8YcYZBSFMtmAcDUCAwEAAaOCARUwggERMAkGA1Ud
EwQCMAAwLAYJYIZIAYb4QgENBB8WHU9wZW5TU0wgR2VuZXJhdGVkIENlcnRpZmlj
YXRlMB0GA1UdDgQWBBQmj639Is4RgZuXnqYVJALku3VaPjCBtgYDVR0jBIGuMIGr
gBSNHW3gj6w0Gnyf3+Ad28/pQqoAfqGBj6SBjDCBiTELMAkGA1UEBhMCSVQxCzAJ
BgNVBAgTAlRPMRIwEAYDVQQHEwlCQU5DSEVUVEUxDDAKBgNVBAoTA0NJQzEMMAoG
A1UECxMDc3lzMRUwEwYDVQQDEwx3YWxsb2Zzd29yZHMxJjAkBgkqhkiG9w0BCQEW
F3RlY25vbG9naWVAY2ljLml2cmVhLml0ggEAMA0GCSqGSIb3DQEBBAUAA4GBAD/y
AvoUJFxzF0Mvz+BDxge2U5xgmGo/UYmhqGxUqP7TDow0iZ1PRbmSwMi4gQ0vHVtp
7LZ6SkBuKGXNE+lA2bwtKzeqmQNtN8PQSHWsbeCnsTb8smHYxBQ65ehb2poMdRUU
0n37Gse2rvC3PDKQKjOPzjsatpCOJLEX6FN3h79u
-----END CERTIFICATE-----
